; Listing generated by Microsoft (R) Optimizing Compiler Version 19.35.32217.1 

	TITLE	C:\Users\15485\Desktop\工程之星点格棋\工程之星点格棋\Debug\Divide.obj
	.686P
	.XMM
	include listing.inc
	.model	flat

INCLUDELIB MSVCRTD
INCLUDELIB OLDNAMES

PUBLIC	?__empty_global_delete@@YAXPAX@Z		; __empty_global_delete
PUBLIC	?__empty_global_delete@@YAXPAXI@Z		; __empty_global_delete
PUBLIC	?Compress@CON@@QAEXXZ				; CON::Compress
EXTRN	?DeleteNode@CON@@QAEXH@Z:PROC			; CON::DeleteNode
EXTRN	__RTC_CheckEsp:PROC
EXTRN	__RTC_InitBase:PROC
EXTRN	__RTC_Shutdown:PROC
;	COMDAT ?count@?1??Compress@CON@@QAEXXZ@4HA
_BSS	SEGMENT
?count@?1??Compress@CON@@QAEXXZ@4HA DD 01H DUP (?)	; `CON::Compress'::`2'::count
_BSS	ENDS
;	COMDAT rtc$TMZ
rtc$TMZ	SEGMENT
__RTC_Shutdown.rtc$TMZ DD FLAT:__RTC_Shutdown
rtc$TMZ	ENDS
;	COMDAT rtc$IMZ
rtc$IMZ	SEGMENT
__RTC_InitBase.rtc$IMZ DD FLAT:__RTC_InitBase
rtc$IMZ	ENDS
; Function compile flags: /Odtp /RTCsu
; File C:\Users\15485\Desktop\工程之星点格棋\DotBoxLib\Divide.cpp
_TEXT	SEGMENT
_nn$ = -8						; size = 4
_this$ = -4						; size = 4
?Compress@CON@@QAEXXZ PROC				; CON::Compress
; _this$ = ecx

; 90   : {

  00000	55		 push	 ebp
  00001	8b ec		 mov	 ebp, esp
  00003	83 ec 08	 sub	 esp, 8
  00006	c7 45 f8 cc cc
	cc cc		 mov	 DWORD PTR [ebp-8], -858993460 ; ccccccccH
  0000d	c7 45 fc cc cc
	cc cc		 mov	 DWORD PTR [ebp-4], -858993460 ; ccccccccH
  00014	89 4d fc	 mov	 DWORD PTR _this$[ebp], ecx

; 91   :   //Discaard any unused nodes.
; 92   :   int nn;
; 93   :   static int count=0;
; 94   :   count++;

  00017	a1 00 00 00 00	 mov	 eax, DWORD PTR ?count@?1??Compress@CON@@QAEXXZ@4HA
  0001c	83 c0 01	 add	 eax, 1
  0001f	a3 00 00 00 00	 mov	 DWORD PTR ?count@?1??Compress@CON@@QAEXXZ@4HA, eax

; 95   : #ifdef NS_DUMP
; 96   : //  DUMP("About to Compress",count,0,0,0,m_numNode);
; 97   : #endif
; 98   :   for (nn=0; nn<m_numNode; nn++)

  00024	c7 45 f8 00 00
	00 00		 mov	 DWORD PTR _nn$[ebp], 0
  0002b	eb 09		 jmp	 SHORT $LN4@Compress
$LN2@Compress:
  0002d	8b 4d f8	 mov	 ecx, DWORD PTR _nn$[ebp]
  00030	83 c1 01	 add	 ecx, 1
  00033	89 4d f8	 mov	 DWORD PTR _nn$[ebp], ecx
$LN4@Compress:
  00036	8b 55 fc	 mov	 edx, DWORD PTR _this$[ebp]
  00039	8b 45 f8	 mov	 eax, DWORD PTR _nn$[ebp]
  0003c	3b 02		 cmp	 eax, DWORD PTR [edx]
  0003e	7d 34		 jge	 SHORT $LN1@Compress

; 99   :   {
; 100  :     if (nd[nd[nn].ix].ec == 0)

  00040	8b 4d f8	 mov	 ecx, DWORD PTR _nn$[ebp]
  00043	8b 55 fc	 mov	 edx, DWORD PTR _this$[ebp]
  00046	0f b6 84 8a 13
	10 00 00	 movzx	 eax, BYTE PTR [edx+ecx*4+4115]
  0004e	8b 4d fc	 mov	 ecx, DWORD PTR _this$[ebp]
  00051	0f b6 94 81 10
	10 00 00	 movzx	 edx, BYTE PTR [ecx+eax*4+4112]
  00059	85 d2		 test	 edx, edx
  0005b	75 15		 jne	 SHORT $LN5@Compress

; 101  :     {
; 102  :       DeleteNode(nn);

  0005d	8b 45 f8	 mov	 eax, DWORD PTR _nn$[ebp]
  00060	50		 push	 eax
  00061	8b 4d fc	 mov	 ecx, DWORD PTR _this$[ebp]
  00064	e8 00 00 00 00	 call	 ?DeleteNode@CON@@QAEXH@Z ; CON::DeleteNode

; 103  :       nn--;

  00069	8b 4d f8	 mov	 ecx, DWORD PTR _nn$[ebp]
  0006c	83 e9 01	 sub	 ecx, 1
  0006f	89 4d f8	 mov	 DWORD PTR _nn$[ebp], ecx
$LN5@Compress:

; 104  :     };
; 105  :   };

  00072	eb b9		 jmp	 SHORT $LN2@Compress
$LN1@Compress:

; 106  : }

  00074	83 c4 08	 add	 esp, 8
  00077	3b ec		 cmp	 ebp, esp
  00079	e8 00 00 00 00	 call	 __RTC_CheckEsp
  0007e	8b e5		 mov	 esp, ebp
  00080	5d		 pop	 ebp
  00081	c3		 ret	 0
?Compress@CON@@QAEXXZ ENDP				; CON::Compress
_TEXT	ENDS
; Function compile flags: /Odtp /RTCsu
; File C:\Users\15485\Desktop\工程之星点格棋\DotBoxLib\Divide.cpp
;	COMDAT ?__empty_global_delete@@YAXPAXI@Z
_TEXT	SEGMENT
___formal$ = 8						; size = 4
___formal$ = 12						; size = 4
?__empty_global_delete@@YAXPAXI@Z PROC			; __empty_global_delete, COMDAT

  00000	55		 push	 ebp
  00001	8b ec		 mov	 ebp, esp
  00003	5d		 pop	 ebp
  00004	c3		 ret	 0
?__empty_global_delete@@YAXPAXI@Z ENDP			; __empty_global_delete
_TEXT	ENDS
; Function compile flags: /Odtp /RTCsu
; File C:\Users\15485\Desktop\工程之星点格棋\DotBoxLib\Divide.cpp
;	COMDAT ?__empty_global_delete@@YAXPAX@Z
_TEXT	SEGMENT
___formal$ = 8						; size = 4
?__empty_global_delete@@YAXPAX@Z PROC			; __empty_global_delete, COMDAT

  00000	55		 push	 ebp
  00001	8b ec		 mov	 ebp, esp
  00003	5d		 pop	 ebp
  00004	c3		 ret	 0
?__empty_global_delete@@YAXPAX@Z ENDP			; __empty_global_delete
_TEXT	ENDS
END
