; Listing generated by Microsoft (R) Optimizing Compiler Version 19.35.32217.1 

	TITLE	C:\Users\15485\Desktop\工程之星点格棋\工程之星点格棋\Debug\EnterPosition.obj
	.686P
	.XMM
	include listing.inc
	.model	flat

INCLUDELIB MSVCRTD
INCLUDELIB OLDNAMES

CONST	SEGMENT
$SG74042 DB	'atlTraceException', 00H
CONST	ENDS
PUBLIC	?__empty_global_delete@@YAXPAX@Z		; __empty_global_delete
PUBLIC	?__empty_global_delete@@YAXPAXI@Z		; __empty_global_delete
PUBLIC	___local_stdio_printf_options
PUBLIC	__vswprintf_s_l
PUBLIC	_swprintf_s
PUBLIC	??0?$CTraceCategoryEx@$0CAAA@$0A@@ATL@@QAE@PBD@Z ; ATL::CTraceCategoryEx<8192,0>::CTraceCategoryEx<8192,0>
PUBLIC	?RegisterCategory@CTrace@ATL@@SAXPBDI@Z		; ATL::CTrace::RegisterCategory
PUBLIC	?_OptionsStorage@?1??__local_stdio_printf_options@@9@4_KA ; `__local_stdio_printf_options'::`2'::_OptionsStorage
PUBLIC	??_C@_17CNPHIMPH@?$AA?$CF?$AAl?$AAs@		; `string'
PUBLIC	?atlTraceException@ATL@@3V?$CTraceCategoryEx@$0CAAA@$0A@@1@A ; ATL::atlTraceException
PUBLIC	?m_nLastCategory@CTrace@ATL@@1IA		; ATL::CTrace::m_nLastCategory
PUBLIC	?m_nMap@CTrace@ATL@@1PAUCategoryMap@12@A	; ATL::CTrace::m_nMap
PUBLIC	??_C@_17LGGGMOOB@?$AA?$CF?$AAh?$AAs@		; `string'
PUBLIC	??_C@_1EO@EBPPKGOM@?$AAf?$AAa?$AAl?$AAs?$AAe?$AA?5?$AA?$CG?$AA?$CG?$AA?5?$AA?$CC?$AAT?$AAo?$AAo?$AA?5?$AAm@ ; `string'
PUBLIC	??_C@_1LM@KONDCONO@?$AAG?$AA?3?$AA?2?$AAM?$AAi?$AAc?$AAr?$AAo?$AAs?$AAo?$AAf?$AAt?$AA?5?$AAV?$AAi@ ; `string'
EXTRN	__imp__wcscpy_s:PROC
EXTRN	__imp____stdio_common_vswprintf_s:PROC
EXTRN	__imp___CrtDbgReportW:PROC
EXTRN	@_RTC_CheckStackVars@8:PROC
EXTRN	@__security_check_cookie@4:PROC
EXTRN	__RTC_CheckEsp:PROC
EXTRN	__RTC_InitBase:PROC
EXTRN	__RTC_Shutdown:PROC
EXTRN	_memset:PROC
EXTRN	___security_cookie:DWORD
;	COMDAT ?_OptionsStorage@?1??__local_stdio_printf_options@@9@4_KA
_BSS	SEGMENT
?_OptionsStorage@?1??__local_stdio_printf_options@@9@4_KA DQ 01H DUP (?) ; `__local_stdio_printf_options'::`2'::_OptionsStorage
_BSS	ENDS
;	COMDAT ?atlTraceException@ATL@@3V?$CTraceCategoryEx@$0CAAA@$0A@@1@A
_BSS	SEGMENT
?atlTraceException@ATL@@3V?$CTraceCategoryEx@$0CAAA@$0A@@1@A DD 01H DUP (?) ; ATL::atlTraceException
_BSS	ENDS
;	COMDAT ?m_nLastCategory@CTrace@ATL@@1IA
_BSS	SEGMENT
?m_nLastCategory@CTrace@ATL@@1IA DD 01H DUP (?)		; ATL::CTrace::m_nLastCategory
_BSS	ENDS
;	COMDAT ?m_nMap@CTrace@ATL@@1PAUCategoryMap@12@A
_BSS	SEGMENT
?m_nMap@CTrace@ATL@@1PAUCategoryMap@12@A DB 02080H DUP (?) ; ATL::CTrace::m_nMap
_BSS	ENDS
;	COMDAT CRT$XCU
CRT$XCU	SEGMENT
?atlTraceException$initializer$@ATL@@3P6AXXZA DD FLAT:??__EatlTraceException@ATL@@YAXXZ ; ATL::atlTraceException$initializer$
CRT$XCU	ENDS
;	COMDAT rtc$TMZ
rtc$TMZ	SEGMENT
__RTC_Shutdown.rtc$TMZ DD FLAT:__RTC_Shutdown
rtc$TMZ	ENDS
;	COMDAT rtc$IMZ
rtc$IMZ	SEGMENT
__RTC_InitBase.rtc$IMZ DD FLAT:__RTC_InitBase
rtc$IMZ	ENDS
;	COMDAT ??_C@_1LM@KONDCONO@?$AAG?$AA?3?$AA?2?$AAM?$AAi?$AAc?$AAr?$AAo?$AAs?$AAo?$AAf?$AAt?$AA?5?$AAV?$AAi@
CONST	SEGMENT
??_C@_1LM@KONDCONO@?$AAG?$AA?3?$AA?2?$AAM?$AAi?$AAc?$AAr?$AAo?$AAs?$AAo?$AAf?$AAt?$AA?5?$AAV?$AAi@ DB 'G'
	DB	00H, ':', 00H, '\', 00H, 'M', 00H, 'i', 00H, 'c', 00H, 'r', 00H
	DB	'o', 00H, 's', 00H, 'o', 00H, 'f', 00H, 't', 00H, ' ', 00H, 'V'
	DB	00H, 'i', 00H, 's', 00H, 'u', 00H, 'a', 00H, 'l', 00H, ' ', 00H
	DB	'S', 00H, 't', 00H, 'u', 00H, 'd', 00H, 'i', 00H, 'o', 00H, '\'
	DB	00H, '2', 00H, '0', 00H, '2', 00H, '2', 00H, '\', 00H, 'C', 00H
	DB	'o', 00H, 'm', 00H, 'm', 00H, 'u', 00H, 'n', 00H, 'i', 00H, 't'
	DB	00H, 'y', 00H, '\', 00H, 'V', 00H, 'C', 00H, '\', 00H, 'T', 00H
	DB	'o', 00H, 'o', 00H, 'l', 00H, 's', 00H, '\', 00H, 'M', 00H, 'S'
	DB	00H, 'V', 00H, 'C', 00H, '\', 00H, '1', 00H, '4', 00H, '.', 00H
	DB	'3', 00H, '5', 00H, '.', 00H, '3', 00H, '2', 00H, '2', 00H, '1'
	DB	00H, '5', 00H, '\', 00H, 'a', 00H, 't', 00H, 'l', 00H, 'm', 00H
	DB	'f', 00H, 'c', 00H, '\', 00H, 'i', 00H, 'n', 00H, 'c', 00H, 'l'
	DB	00H, 'u', 00H, 'd', 00H, 'e', 00H, '\', 00H, 'a', 00H, 't', 00H
	DB	'l', 00H, 't', 00H, 'r', 00H, 'a', 00H, 'c', 00H, 'e', 00H, '.'
	DB	00H, 'h', 00H, 00H, 00H			; `string'
CONST	ENDS
;	COMDAT ??_C@_1EO@EBPPKGOM@?$AAf?$AAa?$AAl?$AAs?$AAe?$AA?5?$AA?$CG?$AA?$CG?$AA?5?$AA?$CC?$AAT?$AAo?$AAo?$AA?5?$AAm@
CONST	SEGMENT
??_C@_1EO@EBPPKGOM@?$AAf?$AAa?$AAl?$AAs?$AAe?$AA?5?$AA?$CG?$AA?$CG?$AA?5?$AA?$CC?$AAT?$AAo?$AAo?$AA?5?$AAm@ DB 'f'
	DB	00H, 'a', 00H, 'l', 00H, 's', 00H, 'e', 00H, ' ', 00H, '&', 00H
	DB	'&', 00H, ' ', 00H, '"', 00H, 'T', 00H, 'o', 00H, 'o', 00H, ' '
	DB	00H, 'm', 00H, 'a', 00H, 'n', 00H, 'y', 00H, ' ', 00H, 'c', 00H
	DB	'a', 00H, 't', 00H, 'e', 00H, 'g', 00H, 'o', 00H, 'r', 00H, 'i'
	DB	00H, 'e', 00H, 's', 00H, ' ', 00H, 'd', 00H, 'e', 00H, 'f', 00H
	DB	'i', 00H, 'n', 00H, 'e', 00H, 'd', 00H, '"', 00H, 00H, 00H ; `string'
CONST	ENDS
;	COMDAT ??_C@_17LGGGMOOB@?$AA?$CF?$AAh?$AAs@
CONST	SEGMENT
??_C@_17LGGGMOOB@?$AA?$CF?$AAh?$AAs@ DB '%', 00H, 'h', 00H, 's', 00H, 00H
	DB	00H						; `string'
CONST	ENDS
;	COMDAT ??_C@_17CNPHIMPH@?$AA?$CF?$AAl?$AAs@
CONST	SEGMENT
??_C@_17CNPHIMPH@?$AA?$CF?$AAl?$AAs@ DB '%', 00H, 'l', 00H, 's', 00H, 00H
	DB	00H						; `string'
CONST	ENDS
;	COMDAT voltbl
voltbl	SEGMENT
_volmd	DW	024H
	DW	0100H
voltbl	ENDS
; Function compile flags: /Odtp /RTCsu
; File G:\Microsoft Visual Studio\2022\Community\VC\Tools\MSVC\14.35.32215\atlmfc\include\atltrace.h
;	COMDAT ?RegisterCategory@CTrace@ATL@@SAXPBDI@Z
_TEXT	SEGMENT
_buffer$ = -264						; size = 256
__$ArrayPad$ = -4					; size = 4
_pszCategory$ = 8					; size = 4
_nCategory$ = 12					; size = 4
?RegisterCategory@CTrace@ATL@@SAXPBDI@Z PROC		; ATL::CTrace::RegisterCategory, COMDAT

; 329  : 	{

  00000	55		 push	 ebp
  00001	8b ec		 mov	 ebp, esp
  00003	81 ec 0c 01 00
	00		 sub	 esp, 268		; 0000010cH
  00009	56		 push	 esi
  0000a	57		 push	 edi
  0000b	8d bd f4 fe ff
	ff		 lea	 edi, DWORD PTR [ebp-268]
  00011	b9 43 00 00 00	 mov	 ecx, 67			; 00000043H
  00016	b8 cc cc cc cc	 mov	 eax, -858993460		; ccccccccH
  0001b	f3 ab		 rep stosd
  0001d	a1 00 00 00 00	 mov	 eax, DWORD PTR ___security_cookie
  00022	33 c5		 xor	 eax, ebp
  00024	89 45 fc	 mov	 DWORD PTR __$ArrayPad$[ebp], eax

; 330  : 		if (pszCategory == nullptr)

  00027	83 7d 08 00	 cmp	 DWORD PTR _pszCategory$[ebp], 0
  0002b	75 05		 jne	 SHORT $LN2@RegisterCa

; 331  : 		{
; 332  : 			return;

  0002d	e9 bb 00 00 00	 jmp	 $LN1@RegisterCa
$LN2@RegisterCa:

; 333  : 		}
; 334  : 
; 335  : 		if (m_nLastCategory >= MaxCategoryArray) 

  00032	83 3d 00 00 00
	00 20		 cmp	 DWORD PTR ?m_nLastCategory@CTrace@ATL@@1IA, 32 ; ATL::CTrace::m_nLastCategory, 00000020H
  00039	72 36		 jb	 SHORT $LN3@RegisterCa

; 336  : 		{
; 337  : 			ATLASSERT(false && "Too many categories defined");

  0003b	33 c0		 xor	 eax, eax
  0003d	75 30		 jne	 SHORT $LN5@RegisterCa
  0003f	8b f4		 mov	 esi, esp
  00041	68 00 00 00 00	 push	 OFFSET ??_C@_1EO@EBPPKGOM@?$AAf?$AAa?$AAl?$AAs?$AAe?$AA?5?$AA?$CG?$AA?$CG?$AA?5?$AA?$CC?$AAT?$AAo?$AAo?$AA?5?$AAm@
  00046	68 00 00 00 00	 push	 OFFSET ??_C@_17CNPHIMPH@?$AA?$CF?$AAl?$AAs@
  0004b	6a 00		 push	 0
  0004d	68 51 01 00 00	 push	 337			; 00000151H
  00052	68 00 00 00 00	 push	 OFFSET ??_C@_1LM@KONDCONO@?$AAG?$AA?3?$AA?2?$AAM?$AAi?$AAc?$AAr?$AAo?$AAs?$AAo?$AAf?$AAt?$AA?5?$AAV?$AAi@
  00057	6a 02		 push	 2
  00059	ff 15 00 00 00
	00		 call	 DWORD PTR __imp___CrtDbgReportW
  0005f	83 c4 18	 add	 esp, 24			; 00000018H
  00062	3b f4		 cmp	 esi, esp
  00064	e8 00 00 00 00	 call	 __RTC_CheckEsp
  00069	83 f8 01	 cmp	 eax, 1
  0006c	75 01		 jne	 SHORT $LN5@RegisterCa
  0006e	cc		 int	 3
$LN5@RegisterCa:

; 338  : 			return;

  0006f	eb 7c		 jmp	 SHORT $LN1@RegisterCa
$LN3@RegisterCa:

; 339  : 		}
; 340  : 
; 341  : 		m_nMap[m_nLastCategory].nCategory = nCategory;

  00071	69 15 00 00 00
	00 04 01 00 00	 imul	 edx, DWORD PTR ?m_nLastCategory@CTrace@ATL@@1IA, 260 ; ATL::CTrace::m_nLastCategory
  0007b	8b 45 0c	 mov	 eax, DWORD PTR _nCategory$[ebp]
  0007e	89 82 00 00 00
	00		 mov	 DWORD PTR ?m_nMap@CTrace@ATL@@1PAUCategoryMap@12@A[edx], eax

; 342  : #ifdef _UNICODE
; 343  : 		wcscpy_s(m_nMap[m_nLastCategory].categryName, MaxLengthOfCategoryName - 1, pszCategory);
; 344  : #else
; 345  : 		wchar_t buffer[MaxLengthOfCategoryName] = { 0 };	

  00084	68 00 01 00 00	 push	 256			; 00000100H
  00089	6a 00		 push	 0
  0008b	8d 8d f8 fe ff
	ff		 lea	 ecx, DWORD PTR _buffer$[ebp]
  00091	51		 push	 ecx
  00092	e8 00 00 00 00	 call	 _memset
  00097	83 c4 0c	 add	 esp, 12			; 0000000cH

; 346  : #if _MSC_VER < 1900
; 347  : 		swprintf_s(buffer, MaxLengthOfCategoryName - 1, L"%S", pszCategory);
; 348  : #else
; 349  : 		swprintf_s(buffer, MaxLengthOfCategoryName - 1, L"%hs", pszCategory);

  0009a	8b 55 08	 mov	 edx, DWORD PTR _pszCategory$[ebp]
  0009d	52		 push	 edx
  0009e	68 00 00 00 00	 push	 OFFSET ??_C@_17LGGGMOOB@?$AA?$CF?$AAh?$AAs@
  000a3	6a 7f		 push	 127			; 0000007fH
  000a5	8d 85 f8 fe ff
	ff		 lea	 eax, DWORD PTR _buffer$[ebp]
  000ab	50		 push	 eax
  000ac	e8 00 00 00 00	 call	 _swprintf_s
  000b1	83 c4 10	 add	 esp, 16			; 00000010H

; 350  : #endif
; 351  : 		wcscpy_s(m_nMap[m_nLastCategory].categryName, MaxLengthOfCategoryName - 1, buffer);

  000b4	8b f4		 mov	 esi, esp
  000b6	8d 8d f8 fe ff
	ff		 lea	 ecx, DWORD PTR _buffer$[ebp]
  000bc	51		 push	 ecx
  000bd	6a 7f		 push	 127			; 0000007fH
  000bf	69 15 00 00 00
	00 04 01 00 00	 imul	 edx, DWORD PTR ?m_nLastCategory@CTrace@ATL@@1IA, 260 ; ATL::CTrace::m_nLastCategory
  000c9	81 c2 04 00 00
	00		 add	 edx, OFFSET ?m_nMap@CTrace@ATL@@1PAUCategoryMap@12@A+4
  000cf	52		 push	 edx
  000d0	ff 15 00 00 00
	00		 call	 DWORD PTR __imp__wcscpy_s
  000d6	83 c4 0c	 add	 esp, 12			; 0000000cH
  000d9	3b f4		 cmp	 esi, esp
  000db	e8 00 00 00 00	 call	 __RTC_CheckEsp

; 352  : #endif
; 353  : 	
; 354  : 		m_nLastCategory++;

  000e0	a1 00 00 00 00	 mov	 eax, DWORD PTR ?m_nLastCategory@CTrace@ATL@@1IA ; ATL::CTrace::m_nLastCategory
  000e5	83 c0 01	 add	 eax, 1
  000e8	a3 00 00 00 00	 mov	 DWORD PTR ?m_nLastCategory@CTrace@ATL@@1IA, eax ; ATL::CTrace::m_nLastCategory
$LN1@RegisterCa:

; 355  : 	}

  000ed	52		 push	 edx
  000ee	8b cd		 mov	 ecx, ebp
  000f0	50		 push	 eax
  000f1	8d 15 00 00 00
	00		 lea	 edx, DWORD PTR $LN8@RegisterCa
  000f7	e8 00 00 00 00	 call	 @_RTC_CheckStackVars@8
  000fc	58		 pop	 eax
  000fd	5a		 pop	 edx
  000fe	5f		 pop	 edi
  000ff	5e		 pop	 esi
  00100	8b 4d fc	 mov	 ecx, DWORD PTR __$ArrayPad$[ebp]
  00103	33 cd		 xor	 ecx, ebp
  00105	e8 00 00 00 00	 call	 @__security_check_cookie@4
  0010a	81 c4 0c 01 00
	00		 add	 esp, 268		; 0000010cH
  00110	3b ec		 cmp	 ebp, esp
  00112	e8 00 00 00 00	 call	 __RTC_CheckEsp
  00117	8b e5		 mov	 esp, ebp
  00119	5d		 pop	 ebp
  0011a	c3		 ret	 0
  0011b	90		 npad	 1
$LN8@RegisterCa:
  0011c	01 00 00 00	 DD	 1
  00120	00 00 00 00	 DD	 $LN7@RegisterCa
$LN7@RegisterCa:
  00124	f8 fe ff ff	 DD	 -264			; fffffef8H
  00128	00 01 00 00	 DD	 256			; 00000100H
  0012c	00 00 00 00	 DD	 $LN6@RegisterCa
$LN6@RegisterCa:
  00130	62		 DB	 98			; 00000062H
  00131	75		 DB	 117			; 00000075H
  00132	66		 DB	 102			; 00000066H
  00133	66		 DB	 102			; 00000066H
  00134	65		 DB	 101			; 00000065H
  00135	72		 DB	 114			; 00000072H
  00136	00		 DB	 0
?RegisterCategory@CTrace@ATL@@SAXPBDI@Z ENDP		; ATL::CTrace::RegisterCategory
_TEXT	ENDS
; Function compile flags: /Odtp /RTCsu
; File G:\Microsoft Visual Studio\2022\Community\VC\Tools\MSVC\14.35.32215\atlmfc\include\atltrace.h
;	COMDAT ??__EatlTraceException@ATL@@YAXXZ
text$di	SEGMENT
??__EatlTraceException@ATL@@YAXXZ PROC			; ATL::`dynamic initializer for 'atlTraceException'', COMDAT

; 110  : __declspec(selectany) CTraceCategoryEx<CTraceCategoryEx<>::TraceException> atlTraceException(_T("atlTraceException"));

  00000	55		 push	 ebp
  00001	8b ec		 mov	 ebp, esp
  00003	68 00 00 00 00	 push	 OFFSET $SG74042
  00008	b9 00 00 00 00	 mov	 ecx, OFFSET ?atlTraceException@ATL@@3V?$CTraceCategoryEx@$0CAAA@$0A@@1@A ; ATL::atlTraceException
  0000d	e8 00 00 00 00	 call	 ??0?$CTraceCategoryEx@$0CAAA@$0A@@ATL@@QAE@PBD@Z ; ATL::CTraceCategoryEx<8192,0>::CTraceCategoryEx<8192,0>
  00012	3b ec		 cmp	 ebp, esp
  00014	e8 00 00 00 00	 call	 __RTC_CheckEsp
  00019	5d		 pop	 ebp
  0001a	c3		 ret	 0
??__EatlTraceException@ATL@@YAXXZ ENDP			; ATL::`dynamic initializer for 'atlTraceException''
text$di	ENDS
; Function compile flags: /Odtp /RTCsu
; File G:\Microsoft Visual Studio\2022\Community\VC\Tools\MSVC\14.35.32215\atlmfc\include\atltrace.h
;	COMDAT ??0?$CTraceCategoryEx@$0CAAA@$0A@@ATL@@QAE@PBD@Z
_TEXT	SEGMENT
_this$ = -4						; size = 4
_pszCategoryName$ = 8					; size = 4
??0?$CTraceCategoryEx@$0CAAA@$0A@@ATL@@QAE@PBD@Z PROC	; ATL::CTraceCategoryEx<8192,0>::CTraceCategoryEx<8192,0>, COMDAT
; _this$ = ecx

; 480  : {

  00000	55		 push	 ebp
  00001	8b ec		 mov	 ebp, esp
  00003	51		 push	 ecx
  00004	c7 45 fc cc cc
	cc cc		 mov	 DWORD PTR [ebp-4], -858993460 ; ccccccccH
  0000b	89 4d fc	 mov	 DWORD PTR _this$[ebp], ecx

; 481  : 	CTrace::RegisterCategory(pszCategoryName, traceCategory);

  0000e	68 00 20 00 00	 push	 8192			; 00002000H
  00013	8b 45 08	 mov	 eax, DWORD PTR _pszCategoryName$[ebp]
  00016	50		 push	 eax
  00017	e8 00 00 00 00	 call	 ?RegisterCategory@CTrace@ATL@@SAXPBDI@Z ; ATL::CTrace::RegisterCategory
  0001c	83 c4 08	 add	 esp, 8

; 482  : }

  0001f	8b 45 fc	 mov	 eax, DWORD PTR _this$[ebp]
  00022	83 c4 04	 add	 esp, 4
  00025	3b ec		 cmp	 ebp, esp
  00027	e8 00 00 00 00	 call	 __RTC_CheckEsp
  0002c	8b e5		 mov	 esp, ebp
  0002e	5d		 pop	 ebp
  0002f	c2 04 00	 ret	 4
??0?$CTraceCategoryEx@$0CAAA@$0A@@ATL@@QAE@PBD@Z ENDP	; ATL::CTraceCategoryEx<8192,0>::CTraceCategoryEx<8192,0>
_TEXT	ENDS
; Function compile flags: /Odtp /RTCsu
; File D:\Windows Kits\10\Include\10.0.22000.0\ucrt\corecrt_wstdio.h
;	COMDAT _swprintf_s
_TEXT	SEGMENT
__ArgList$ = -8						; size = 4
__Result$ = -4						; size = 4
__Buffer$ = 8						; size = 4
__BufferCount$ = 12					; size = 4
__Format$ = 16						; size = 4
_swprintf_s PROC					; COMDAT

; 1523 :         {

  00000	55		 push	 ebp
  00001	8b ec		 mov	 ebp, esp
  00003	83 ec 0c	 sub	 esp, 12			; 0000000cH
  00006	c7 45 f4 cc cc
	cc cc		 mov	 DWORD PTR [ebp-12], -858993460 ; ccccccccH
  0000d	c7 45 f8 cc cc
	cc cc		 mov	 DWORD PTR [ebp-8], -858993460 ; ccccccccH
  00014	c7 45 fc cc cc
	cc cc		 mov	 DWORD PTR [ebp-4], -858993460 ; ccccccccH

; 1524 :             int _Result;
; 1525 :             va_list _ArgList;
; 1526 :             __crt_va_start(_ArgList, _Format);

  0001b	8d 45 14	 lea	 eax, DWORD PTR __Format$[ebp+4]
  0001e	89 45 f8	 mov	 DWORD PTR __ArgList$[ebp], eax

; 1527 :             _Result = _vswprintf_s_l(_Buffer, _BufferCount, _Format, NULL, _ArgList);

  00021	8b 4d f8	 mov	 ecx, DWORD PTR __ArgList$[ebp]
  00024	51		 push	 ecx
  00025	6a 00		 push	 0
  00027	8b 55 10	 mov	 edx, DWORD PTR __Format$[ebp]
  0002a	52		 push	 edx
  0002b	8b 45 0c	 mov	 eax, DWORD PTR __BufferCount$[ebp]
  0002e	50		 push	 eax
  0002f	8b 4d 08	 mov	 ecx, DWORD PTR __Buffer$[ebp]
  00032	51		 push	 ecx
  00033	e8 00 00 00 00	 call	 __vswprintf_s_l
  00038	83 c4 14	 add	 esp, 20			; 00000014H
  0003b	89 45 fc	 mov	 DWORD PTR __Result$[ebp], eax

; 1528 :             __crt_va_end(_ArgList);

  0003e	c7 45 f8 00 00
	00 00		 mov	 DWORD PTR __ArgList$[ebp], 0

; 1529 :             return _Result;

  00045	8b 45 fc	 mov	 eax, DWORD PTR __Result$[ebp]

; 1530 :         }

  00048	83 c4 0c	 add	 esp, 12			; 0000000cH
  0004b	3b ec		 cmp	 ebp, esp
  0004d	e8 00 00 00 00	 call	 __RTC_CheckEsp
  00052	8b e5		 mov	 esp, ebp
  00054	5d		 pop	 ebp
  00055	c3		 ret	 0
_swprintf_s ENDP
_TEXT	ENDS
; Function compile flags: /Odtp /RTCsu
; File D:\Windows Kits\10\Include\10.0.22000.0\ucrt\corecrt_wstdio.h
;	COMDAT __vswprintf_s_l
_TEXT	SEGMENT
tv73 = -8						; size = 4
__Result$ = -4						; size = 4
__Buffer$ = 8						; size = 4
__BufferCount$ = 12					; size = 4
__Format$ = 16						; size = 4
__Locale$ = 20						; size = 4
__ArgList$ = 24						; size = 4
__vswprintf_s_l PROC					; COMDAT

; 1256 :     {

  00000	55		 push	 ebp
  00001	8b ec		 mov	 ebp, esp
  00003	83 ec 08	 sub	 esp, 8
  00006	56		 push	 esi
  00007	c7 45 f8 cc cc
	cc cc		 mov	 DWORD PTR [ebp-8], -858993460 ; ccccccccH
  0000e	c7 45 fc cc cc
	cc cc		 mov	 DWORD PTR [ebp-4], -858993460 ; ccccccccH

; 1257 :         int const _Result = __stdio_common_vswprintf_s(

  00015	8b f4		 mov	 esi, esp
  00017	8b 45 18	 mov	 eax, DWORD PTR __ArgList$[ebp]
  0001a	50		 push	 eax
  0001b	8b 4d 14	 mov	 ecx, DWORD PTR __Locale$[ebp]
  0001e	51		 push	 ecx
  0001f	8b 55 10	 mov	 edx, DWORD PTR __Format$[ebp]
  00022	52		 push	 edx
  00023	8b 45 0c	 mov	 eax, DWORD PTR __BufferCount$[ebp]
  00026	50		 push	 eax
  00027	8b 4d 08	 mov	 ecx, DWORD PTR __Buffer$[ebp]
  0002a	51		 push	 ecx
  0002b	e8 00 00 00 00	 call	 ___local_stdio_printf_options
  00030	8b 50 04	 mov	 edx, DWORD PTR [eax+4]
  00033	52		 push	 edx
  00034	8b 00		 mov	 eax, DWORD PTR [eax]
  00036	50		 push	 eax
  00037	ff 15 00 00 00
	00		 call	 DWORD PTR __imp____stdio_common_vswprintf_s
  0003d	83 c4 1c	 add	 esp, 28			; 0000001cH
  00040	3b f4		 cmp	 esi, esp
  00042	e8 00 00 00 00	 call	 __RTC_CheckEsp
  00047	89 45 fc	 mov	 DWORD PTR __Result$[ebp], eax

; 1258 :             _CRT_INTERNAL_LOCAL_PRINTF_OPTIONS,
; 1259 :             _Buffer, _BufferCount, _Format, _Locale, _ArgList);
; 1260 : 
; 1261 :         return _Result < 0 ? -1 : _Result;

  0004a	83 7d fc 00	 cmp	 DWORD PTR __Result$[ebp], 0
  0004e	7d 09		 jge	 SHORT $LN3@vswprintf_
  00050	c7 45 f8 ff ff
	ff ff		 mov	 DWORD PTR tv73[ebp], -1
  00057	eb 06		 jmp	 SHORT $LN4@vswprintf_
$LN3@vswprintf_:
  00059	8b 4d fc	 mov	 ecx, DWORD PTR __Result$[ebp]
  0005c	89 4d f8	 mov	 DWORD PTR tv73[ebp], ecx
$LN4@vswprintf_:
  0005f	8b 45 f8	 mov	 eax, DWORD PTR tv73[ebp]

; 1262 :     }

  00062	5e		 pop	 esi
  00063	83 c4 08	 add	 esp, 8
  00066	3b ec		 cmp	 ebp, esp
  00068	e8 00 00 00 00	 call	 __RTC_CheckEsp
  0006d	8b e5		 mov	 esp, ebp
  0006f	5d		 pop	 ebp
  00070	c3		 ret	 0
__vswprintf_s_l ENDP
_TEXT	ENDS
; Function compile flags: /Odtp /RTCsu
; File D:\Windows Kits\10\Include\10.0.22000.0\ucrt\corecrt_stdio_config.h
;	COMDAT ___local_stdio_printf_options
_TEXT	SEGMENT
___local_stdio_printf_options PROC			; COMDAT

; 90   :     {

  00000	55		 push	 ebp
  00001	8b ec		 mov	 ebp, esp

; 91   :         static unsigned __int64 _OptionsStorage;
; 92   :         return &_OptionsStorage;

  00003	b8 00 00 00 00	 mov	 eax, OFFSET ?_OptionsStorage@?1??__local_stdio_printf_options@@9@4_KA ; `__local_stdio_printf_options'::`2'::_OptionsStorage

; 93   :     }

  00008	5d		 pop	 ebp
  00009	c3		 ret	 0
___local_stdio_printf_options ENDP
_TEXT	ENDS
; Function compile flags: /Odtp /RTCsu
; File C:\Users\15485\Desktop\工程之星点格棋\工程之星点格棋\EnterPosition.cpp
;	COMDAT ?__empty_global_delete@@YAXPAXI@Z
_TEXT	SEGMENT
___formal$ = 8						; size = 4
___formal$ = 12						; size = 4
?__empty_global_delete@@YAXPAXI@Z PROC			; __empty_global_delete, COMDAT

  00000	55		 push	 ebp
  00001	8b ec		 mov	 ebp, esp
  00003	5d		 pop	 ebp
  00004	c3		 ret	 0
?__empty_global_delete@@YAXPAXI@Z ENDP			; __empty_global_delete
_TEXT	ENDS
; Function compile flags: /Odtp /RTCsu
; File C:\Users\15485\Desktop\工程之星点格棋\工程之星点格棋\EnterPosition.cpp
;	COMDAT ?__empty_global_delete@@YAXPAX@Z
_TEXT	SEGMENT
___formal$ = 8						; size = 4
?__empty_global_delete@@YAXPAX@Z PROC			; __empty_global_delete, COMDAT

  00000	55		 push	 ebp
  00001	8b ec		 mov	 ebp, esp
  00003	5d		 pop	 ebp
  00004	c3		 ret	 0
?__empty_global_delete@@YAXPAX@Z ENDP			; __empty_global_delete
_TEXT	ENDS
END
