; Listing generated by Microsoft (R) Optimizing Compiler Version 19.35.32217.1 

	TITLE	C:\Users\15485\Desktop\工程之星点格棋\工程之星点格棋\Debug\IO.obj
	.686P
	.XMM
	include listing.inc
	.model	flat

INCLUDELIB MSVCRTD
INCLUDELIB OLDNAMES

CONST	SEGMENT
$SG74042 DB	'atlTraceException', 00H
$SG225430 DB	00H
$SG225435 DB	00H
$SG74238 DB	'atlTraceString', 00H
$SG225438 DB	00H
CONST	ENDS
PUBLIC	?__empty_global_delete@@YAXPAX@Z		; __empty_global_delete
PUBLIC	?__empty_global_delete@@YAXPAXI@Z		; __empty_global_delete
PUBLIC	___local_stdio_printf_options
PUBLIC	__vswprintf_s_l
PUBLIC	_swprintf_s
PUBLIC	??0?$CTraceCategoryEx@$0CAAA@$0A@@ATL@@QAE@PBD@Z ; ATL::CTraceCategoryEx<8192,0>::CTraceCategoryEx<8192,0>
PUBLIC	??0?$CTraceCategoryEx@$0CAAAA@$0A@@ATL@@QAE@PBD@Z ; ATL::CTraceCategoryEx<131072,0>::CTraceCategoryEx<131072,0>
PUBLIC	?RegisterCategory@CTrace@ATL@@SAXPBDI@Z		; ATL::CTrace::RegisterCategory
PUBLIC	??0arInput@@QAE@PAVCArchive@@@Z			; arInput::arInput
PUBLIC	??1arInput@@QAE@XZ				; arInput::~arInput
PUBLIC	?ReadLine@arInput@@QAE?AV?$CStringT@DV?$StrTraitMFC_DLL@DV?$ChTraitsCRT@D@ATL@@@@@ATL@@XZ ; arInput::ReadLine
PUBLIC	?_OptionsStorage@?1??__local_stdio_printf_options@@9@4_KA ; `__local_stdio_printf_options'::`2'::_OptionsStorage
PUBLIC	??_C@_17CNPHIMPH@?$AA?$CF?$AAl?$AAs@		; `string'
PUBLIC	?atlTraceException@ATL@@3V?$CTraceCategoryEx@$0CAAA@$0A@@1@A ; ATL::atlTraceException
PUBLIC	?atlTraceString@ATL@@3V?$CTraceCategoryEx@$0CAAAA@$0A@@1@A ; ATL::atlTraceString
PUBLIC	?m_nLastCategory@CTrace@ATL@@1IA		; ATL::CTrace::m_nLastCategory
PUBLIC	?m_nMap@CTrace@ATL@@1PAUCategoryMap@12@A	; ATL::CTrace::m_nMap
PUBLIC	??_C@_17LGGGMOOB@?$AA?$CF?$AAh?$AAs@		; `string'
PUBLIC	??_C@_1EO@EBPPKGOM@?$AAf?$AAa?$AAl?$AAs?$AAe?$AA?5?$AA?$CG?$AA?$CG?$AA?5?$AA?$CC?$AAT?$AAo?$AAo?$AA?5?$AAm@ ; `string'
PUBLIC	??_C@_1LM@KONDCONO@?$AAG?$AA?3?$AA?2?$AAM?$AAi?$AAc?$AAr?$AAo?$AAs?$AAo?$AAf?$AAt?$AA?5?$AAV?$AAi@ ; `string'
EXTRN	__imp__wcscpy_s:PROC
EXTRN	__imp____stdio_common_vswprintf_s:PROC
EXTRN	__imp___CrtDbgReportW:PROC
EXTRN	__imp_??A?$CSimpleStringT@D$00@ATL@@QBEDH@Z:PROC
EXTRN	__imp_?GetLength@?$CSimpleStringT@D$00@ATL@@QBEHXZ:PROC
EXTRN	__imp_??0?$CStringT@DV?$StrTraitMFC_DLL@DV?$ChTraitsCRT@D@ATL@@@@@ATL@@QAE@XZ:PROC
EXTRN	__imp_??0?$CStringT@DV?$StrTraitMFC_DLL@DV?$ChTraitsCRT@D@ATL@@@@@ATL@@QAE@ABV01@@Z:PROC
EXTRN	__imp_??0?$CStringT@DV?$StrTraitMFC_DLL@DV?$ChTraitsCRT@D@ATL@@@@@ATL@@QAE@PBD@Z:PROC
EXTRN	__imp_??1?$CStringT@DV?$StrTraitMFC_DLL@DV?$ChTraitsCRT@D@ATL@@@@@ATL@@QAE@XZ:PROC
EXTRN	__imp_??4?$CStringT@DV?$StrTraitMFC_DLL@DV?$ChTraitsCRT@D@ATL@@@@@ATL@@QAEAAV01@PBD@Z:PROC
EXTRN	__imp_??Y?$CStringT@DV?$StrTraitMFC_DLL@DV?$ChTraitsCRT@D@ATL@@@@@ATL@@QAEAAV01@D@Z:PROC
EXTRN	?Read@CArchive@@QAEIPAXI@Z:PROC			; CArchive::Read
EXTRN	@_RTC_CheckStackVars@8:PROC
EXTRN	@__security_check_cookie@4:PROC
EXTRN	__RTC_CheckEsp:PROC
EXTRN	__RTC_InitBase:PROC
EXTRN	__RTC_Shutdown:PROC
EXTRN	___CxxFrameHandler3:PROC
EXTRN	_memset:PROC
EXTRN	___security_cookie:DWORD
;	COMDAT ?_OptionsStorage@?1??__local_stdio_printf_options@@9@4_KA
_BSS	SEGMENT
?_OptionsStorage@?1??__local_stdio_printf_options@@9@4_KA DQ 01H DUP (?) ; `__local_stdio_printf_options'::`2'::_OptionsStorage
_BSS	ENDS
;	COMDAT ?atlTraceException@ATL@@3V?$CTraceCategoryEx@$0CAAA@$0A@@1@A
_BSS	SEGMENT
?atlTraceException@ATL@@3V?$CTraceCategoryEx@$0CAAA@$0A@@1@A DD 01H DUP (?) ; ATL::atlTraceException
_BSS	ENDS
;	COMDAT ?atlTraceString@ATL@@3V?$CTraceCategoryEx@$0CAAAA@$0A@@1@A
_BSS	SEGMENT
?atlTraceString@ATL@@3V?$CTraceCategoryEx@$0CAAAA@$0A@@1@A DD 01H DUP (?) ; ATL::atlTraceString
_BSS	ENDS
;	COMDAT ?m_nLastCategory@CTrace@ATL@@1IA
_BSS	SEGMENT
?m_nLastCategory@CTrace@ATL@@1IA DD 01H DUP (?)		; ATL::CTrace::m_nLastCategory
_BSS	ENDS
;	COMDAT ?m_nMap@CTrace@ATL@@1PAUCategoryMap@12@A
_BSS	SEGMENT
?m_nMap@CTrace@ATL@@1PAUCategoryMap@12@A DB 02080H DUP (?) ; ATL::CTrace::m_nMap
_BSS	ENDS
;	COMDAT CRT$XCU
CRT$XCU	SEGMENT
?atlTraceException$initializer$@ATL@@3P6AXXZA DD FLAT:??__EatlTraceException@ATL@@YAXXZ ; ATL::atlTraceException$initializer$
CRT$XCU	ENDS
;	COMDAT rtc$TMZ
rtc$TMZ	SEGMENT
__RTC_Shutdown.rtc$TMZ DD FLAT:__RTC_Shutdown
rtc$TMZ	ENDS
;	COMDAT rtc$IMZ
rtc$IMZ	SEGMENT
__RTC_InitBase.rtc$IMZ DD FLAT:__RTC_InitBase
rtc$IMZ	ENDS
;	COMDAT ??_C@_1LM@KONDCONO@?$AAG?$AA?3?$AA?2?$AAM?$AAi?$AAc?$AAr?$AAo?$AAs?$AAo?$AAf?$AAt?$AA?5?$AAV?$AAi@
CONST	SEGMENT
??_C@_1LM@KONDCONO@?$AAG?$AA?3?$AA?2?$AAM?$AAi?$AAc?$AAr?$AAo?$AAs?$AAo?$AAf?$AAt?$AA?5?$AAV?$AAi@ DB 'G'
	DB	00H, ':', 00H, '\', 00H, 'M', 00H, 'i', 00H, 'c', 00H, 'r', 00H
	DB	'o', 00H, 's', 00H, 'o', 00H, 'f', 00H, 't', 00H, ' ', 00H, 'V'
	DB	00H, 'i', 00H, 's', 00H, 'u', 00H, 'a', 00H, 'l', 00H, ' ', 00H
	DB	'S', 00H, 't', 00H, 'u', 00H, 'd', 00H, 'i', 00H, 'o', 00H, '\'
	DB	00H, '2', 00H, '0', 00H, '2', 00H, '2', 00H, '\', 00H, 'C', 00H
	DB	'o', 00H, 'm', 00H, 'm', 00H, 'u', 00H, 'n', 00H, 'i', 00H, 't'
	DB	00H, 'y', 00H, '\', 00H, 'V', 00H, 'C', 00H, '\', 00H, 'T', 00H
	DB	'o', 00H, 'o', 00H, 'l', 00H, 's', 00H, '\', 00H, 'M', 00H, 'S'
	DB	00H, 'V', 00H, 'C', 00H, '\', 00H, '1', 00H, '4', 00H, '.', 00H
	DB	'3', 00H, '5', 00H, '.', 00H, '3', 00H, '2', 00H, '2', 00H, '1'
	DB	00H, '5', 00H, '\', 00H, 'a', 00H, 't', 00H, 'l', 00H, 'm', 00H
	DB	'f', 00H, 'c', 00H, '\', 00H, 'i', 00H, 'n', 00H, 'c', 00H, 'l'
	DB	00H, 'u', 00H, 'd', 00H, 'e', 00H, '\', 00H, 'a', 00H, 't', 00H
	DB	'l', 00H, 't', 00H, 'r', 00H, 'a', 00H, 'c', 00H, 'e', 00H, '.'
	DB	00H, 'h', 00H, 00H, 00H			; `string'
CONST	ENDS
;	COMDAT ??_C@_1EO@EBPPKGOM@?$AAf?$AAa?$AAl?$AAs?$AAe?$AA?5?$AA?$CG?$AA?$CG?$AA?5?$AA?$CC?$AAT?$AAo?$AAo?$AA?5?$AAm@
CONST	SEGMENT
??_C@_1EO@EBPPKGOM@?$AAf?$AAa?$AAl?$AAs?$AAe?$AA?5?$AA?$CG?$AA?$CG?$AA?5?$AA?$CC?$AAT?$AAo?$AAo?$AA?5?$AAm@ DB 'f'
	DB	00H, 'a', 00H, 'l', 00H, 's', 00H, 'e', 00H, ' ', 00H, '&', 00H
	DB	'&', 00H, ' ', 00H, '"', 00H, 'T', 00H, 'o', 00H, 'o', 00H, ' '
	DB	00H, 'm', 00H, 'a', 00H, 'n', 00H, 'y', 00H, ' ', 00H, 'c', 00H
	DB	'a', 00H, 't', 00H, 'e', 00H, 'g', 00H, 'o', 00H, 'r', 00H, 'i'
	DB	00H, 'e', 00H, 's', 00H, ' ', 00H, 'd', 00H, 'e', 00H, 'f', 00H
	DB	'i', 00H, 'n', 00H, 'e', 00H, 'd', 00H, '"', 00H, 00H, 00H ; `string'
CONST	ENDS
;	COMDAT ??_C@_17LGGGMOOB@?$AA?$CF?$AAh?$AAs@
CONST	SEGMENT
??_C@_17LGGGMOOB@?$AA?$CF?$AAh?$AAs@ DB '%', 00H, 'h', 00H, 's', 00H, 00H
	DB	00H						; `string'
CONST	ENDS
;	COMDAT ??_C@_17CNPHIMPH@?$AA?$CF?$AAl?$AAs@
CONST	SEGMENT
??_C@_17CNPHIMPH@?$AA?$CF?$AAl?$AAs@ DB '%', 00H, 'l', 00H, 's', 00H, 00H
	DB	00H						; `string'
CONST	ENDS
voltbl	SEGMENT
_volmd	DD	0ffffffffH
	DDSymXIndex: 	FLAT:__unwindfunclet$?ReadLine@arInput@@QAE?AV?$CStringT@DV?$StrTraitMFC_DLL@DV?$ChTraitsCRT@D@ATL@@@@@ATL@@XZ$0
	DD	020H
voltbl	ENDS
xdata$x	SEGMENT
__unwindtable$?ReadLine@arInput@@QAE?AV?$CStringT@DV?$StrTraitMFC_DLL@DV?$ChTraitsCRT@D@ATL@@@@@ATL@@XZ DD 0ffffffffH
	DD	FLAT:__unwindfunclet$?ReadLine@arInput@@QAE?AV?$CStringT@DV?$StrTraitMFC_DLL@DV?$ChTraitsCRT@D@ATL@@@@@ATL@@XZ$0
__ehfuncinfo$?ReadLine@arInput@@QAE?AV?$CStringT@DV?$StrTraitMFC_DLL@DV?$ChTraitsCRT@D@ATL@@@@@ATL@@XZ DD 019930522H
	DD	01H
	DD	FLAT:__unwindtable$?ReadLine@arInput@@QAE?AV?$CStringT@DV?$StrTraitMFC_DLL@DV?$ChTraitsCRT@D@ATL@@@@@ATL@@XZ
	DD	2 DUP(00H)
	DD	2 DUP(00H)
	DD	00H
	DD	01H
xdata$x	ENDS
;	COMDAT voltbl
voltbl	SEGMENT
_volmd	DW	024H
	DW	0100H
voltbl	ENDS
;	COMDAT CRT$XCU
CRT$XCU	SEGMENT
?atlTraceString$initializer$@ATL@@3P6AXXZA DD FLAT:??__EatlTraceString@ATL@@YAXXZ ; ATL::atlTraceString$initializer$
CRT$XCU	ENDS
; Function compile flags: /Odtp /RTCsu
; File C:\Users\15485\Desktop\工程之星点格棋\DotBoxLib\IO.cpp
_TEXT	SEGMENT
$T2 = -44						; size = 4
_ch$ = -33						; size = 1
_line$ = -24						; size = 4
_this$ = -16						; size = 4
__$EHRec$ = -12						; size = 12
___$ReturnUdt$ = 8					; size = 4
?ReadLine@arInput@@QAE?AV?$CStringT@DV?$StrTraitMFC_DLL@DV?$ChTraitsCRT@D@ATL@@@@@ATL@@XZ PROC ; arInput::ReadLine
; _this$ = ecx

; 17   : {

  00000	55		 push	 ebp
  00001	8b ec		 mov	 ebp, esp
  00003	6a ff		 push	 -1
  00005	68 00 00 00 00	 push	 __ehhandler$?ReadLine@arInput@@QAE?AV?$CStringT@DV?$StrTraitMFC_DLL@DV?$ChTraitsCRT@D@ATL@@@@@ATL@@XZ
  0000a	64 a1 00 00 00
	00		 mov	 eax, DWORD PTR fs:0
  00010	50		 push	 eax
  00011	83 ec 20	 sub	 esp, 32			; 00000020H
  00014	56		 push	 esi
  00015	b8 cc cc cc cc	 mov	 eax, -858993460		; ccccccccH
  0001a	89 45 d4	 mov	 DWORD PTR [ebp-44], eax
  0001d	89 45 d8	 mov	 DWORD PTR [ebp-40], eax
  00020	89 45 dc	 mov	 DWORD PTR [ebp-36], eax
  00023	89 45 e0	 mov	 DWORD PTR [ebp-32], eax
  00026	89 45 e4	 mov	 DWORD PTR [ebp-28], eax
  00029	89 45 e8	 mov	 DWORD PTR [ebp-24], eax
  0002c	89 45 ec	 mov	 DWORD PTR [ebp-20], eax
  0002f	89 45 f0	 mov	 DWORD PTR [ebp-16], eax
  00032	a1 00 00 00 00	 mov	 eax, DWORD PTR ___security_cookie
  00037	33 c5		 xor	 eax, ebp
  00039	50		 push	 eax
  0003a	8d 45 f4	 lea	 eax, DWORD PTR __$EHRec$[ebp]
  0003d	64 a3 00 00 00
	00		 mov	 DWORD PTR fs:0, eax
  00043	89 4d f0	 mov	 DWORD PTR _this$[ebp], ecx
  00046	c7 45 d4 00 00
	00 00		 mov	 DWORD PTR $T2[ebp], 0

; 18   :   CString line;

  0004d	8b f4		 mov	 esi, esp
  0004f	8d 4d e8	 lea	 ecx, DWORD PTR _line$[ebp]
  00052	ff 15 00 00 00
	00		 call	 DWORD PTR __imp_??0?$CStringT@DV?$StrTraitMFC_DLL@DV?$ChTraitsCRT@D@ATL@@@@@ATL@@QAE@XZ
  00058	3b f4		 cmp	 esi, esp
  0005a	e8 00 00 00 00	 call	 __RTC_CheckEsp
  0005f	c7 45 fc 00 00
	00 00		 mov	 DWORD PTR __$EHRec$[ebp+8], 0
$LN4@ReadLine:

; 19   :   char ch;
; 20   :   for (;;)
; 21   :   {
; 22   :     if (m_ar->Read(&ch, 1) < 1)

  00066	6a 01		 push	 1
  00068	8d 45 df	 lea	 eax, DWORD PTR _ch$[ebp]
  0006b	50		 push	 eax
  0006c	8b 4d f0	 mov	 ecx, DWORD PTR _this$[ebp]
  0006f	8b 09		 mov	 ecx, DWORD PTR [ecx]
  00071	e8 00 00 00 00	 call	 ?Read@CArchive@@QAEIPAXI@Z ; CArchive::Read
  00076	83 f8 01	 cmp	 eax, 1
  00079	0f 83 ce 00 00
	00		 jae	 $LN5@ReadLine

; 23   :     {
; 24   :       if (line.GetLength() == 0) return line;

  0007f	8b f4		 mov	 esi, esp
  00081	8d 4d e8	 lea	 ecx, DWORD PTR _line$[ebp]
  00084	ff 15 00 00 00
	00		 call	 DWORD PTR __imp_?GetLength@?$CSimpleStringT@D$00@ATL@@QBEHXZ
  0008a	3b f4		 cmp	 esi, esp
  0008c	e8 00 00 00 00	 call	 __RTC_CheckEsp
  00091	85 c0		 test	 eax, eax
  00093	75 40		 jne	 SHORT $LN6@ReadLine
  00095	8b f4		 mov	 esi, esp
  00097	8d 55 e8	 lea	 edx, DWORD PTR _line$[ebp]
  0009a	52		 push	 edx
  0009b	8b 4d 08	 mov	 ecx, DWORD PTR ___$ReturnUdt$[ebp]
  0009e	ff 15 00 00 00
	00		 call	 DWORD PTR __imp_??0?$CStringT@DV?$StrTraitMFC_DLL@DV?$ChTraitsCRT@D@ATL@@@@@ATL@@QAE@ABV01@@Z
  000a4	3b f4		 cmp	 esi, esp
  000a6	e8 00 00 00 00	 call	 __RTC_CheckEsp
  000ab	8b 45 d4	 mov	 eax, DWORD PTR $T2[ebp]
  000ae	83 c8 01	 or	 eax, 1
  000b1	89 45 d4	 mov	 DWORD PTR $T2[ebp], eax
  000b4	c7 45 fc ff ff
	ff ff		 mov	 DWORD PTR __$EHRec$[ebp+8], -1
  000bb	8b f4		 mov	 esi, esp
  000bd	8d 4d e8	 lea	 ecx, DWORD PTR _line$[ebp]
  000c0	ff 15 00 00 00
	00		 call	 DWORD PTR __imp_??1?$CStringT@DV?$StrTraitMFC_DLL@DV?$ChTraitsCRT@D@ATL@@@@@ATL@@QAE@XZ
  000c6	3b f4		 cmp	 esi, esp
  000c8	e8 00 00 00 00	 call	 __RTC_CheckEsp
  000cd	8b 45 08	 mov	 eax, DWORD PTR ___$ReturnUdt$[ebp]
  000d0	e9 1d 02 00 00	 jmp	 $LN1@ReadLine
$LN6@ReadLine:

; 25   :       if (line[0] != '#') return line;

  000d5	8b f4		 mov	 esi, esp
  000d7	6a 00		 push	 0
  000d9	8d 4d e8	 lea	 ecx, DWORD PTR _line$[ebp]
  000dc	ff 15 00 00 00
	00		 call	 DWORD PTR __imp_??A?$CSimpleStringT@D$00@ATL@@QBEDH@Z
  000e2	3b f4		 cmp	 esi, esp
  000e4	e8 00 00 00 00	 call	 __RTC_CheckEsp
  000e9	0f be c8	 movsx	 ecx, al
  000ec	83 f9 23	 cmp	 ecx, 35			; 00000023H
  000ef	74 40		 je	 SHORT $LN7@ReadLine
  000f1	8b f4		 mov	 esi, esp
  000f3	8d 55 e8	 lea	 edx, DWORD PTR _line$[ebp]
  000f6	52		 push	 edx
  000f7	8b 4d 08	 mov	 ecx, DWORD PTR ___$ReturnUdt$[ebp]
  000fa	ff 15 00 00 00
	00		 call	 DWORD PTR __imp_??0?$CStringT@DV?$StrTraitMFC_DLL@DV?$ChTraitsCRT@D@ATL@@@@@ATL@@QAE@ABV01@@Z
  00100	3b f4		 cmp	 esi, esp
  00102	e8 00 00 00 00	 call	 __RTC_CheckEsp
  00107	8b 45 d4	 mov	 eax, DWORD PTR $T2[ebp]
  0010a	83 c8 01	 or	 eax, 1
  0010d	89 45 d4	 mov	 DWORD PTR $T2[ebp], eax
  00110	c7 45 fc ff ff
	ff ff		 mov	 DWORD PTR __$EHRec$[ebp+8], -1
  00117	8b f4		 mov	 esi, esp
  00119	8d 4d e8	 lea	 ecx, DWORD PTR _line$[ebp]
  0011c	ff 15 00 00 00
	00		 call	 DWORD PTR __imp_??1?$CStringT@DV?$StrTraitMFC_DLL@DV?$ChTraitsCRT@D@ATL@@@@@ATL@@QAE@XZ
  00122	3b f4		 cmp	 esi, esp
  00124	e8 00 00 00 00	 call	 __RTC_CheckEsp
  00129	8b 45 08	 mov	 eax, DWORD PTR ___$ReturnUdt$[ebp]
  0012c	e9 c1 01 00 00	 jmp	 $LN1@ReadLine
$LN7@ReadLine:

; 26   :       line = "";

  00131	8b f4		 mov	 esi, esp
  00133	68 00 00 00 00	 push	 OFFSET $SG225430
  00138	8d 4d e8	 lea	 ecx, DWORD PTR _line$[ebp]
  0013b	ff 15 00 00 00
	00		 call	 DWORD PTR __imp_??4?$CStringT@DV?$StrTraitMFC_DLL@DV?$ChTraitsCRT@D@ATL@@@@@ATL@@QAEAAV01@PBD@Z
  00141	3b f4		 cmp	 esi, esp
  00143	e8 00 00 00 00	 call	 __RTC_CheckEsp

; 27   :       continue;

  00148	e9 19 ff ff ff	 jmp	 $LN4@ReadLine
$LN5@ReadLine:

; 28   :     };
; 29   :     if (ch == '\015')

  0014d	0f be 4d df	 movsx	 ecx, BYTE PTR _ch$[ebp]
  00151	83 f9 0d	 cmp	 ecx, 13			; 0000000dH
  00154	0f 85 63 01 00
	00		 jne	 $LN8@ReadLine

; 30   :     {
; 31   :       if (m_ar->Read(&ch, 1) < 1)

  0015a	6a 01		 push	 1
  0015c	8d 55 df	 lea	 edx, DWORD PTR _ch$[ebp]
  0015f	52		 push	 edx
  00160	8b 45 f0	 mov	 eax, DWORD PTR _this$[ebp]
  00163	8b 08		 mov	 ecx, DWORD PTR [eax]
  00165	e8 00 00 00 00	 call	 ?Read@CArchive@@QAEIPAXI@Z ; CArchive::Read
  0016a	83 f8 01	 cmp	 eax, 1
  0016d	0f 83 b2 00 00
	00		 jae	 $LN10@ReadLine

; 32   :       {
; 33   :         if (ch == '#') return CString("");

  00173	0f be 4d df	 movsx	 ecx, BYTE PTR _ch$[ebp]
  00177	83 f9 23	 cmp	 ecx, 35			; 00000023H
  0017a	75 41		 jne	 SHORT $LN11@ReadLine
  0017c	8b f4		 mov	 esi, esp
  0017e	68 00 00 00 00	 push	 OFFSET $SG225435
  00183	8b 4d 08	 mov	 ecx, DWORD PTR ___$ReturnUdt$[ebp]
  00186	ff 15 00 00 00
	00		 call	 DWORD PTR __imp_??0?$CStringT@DV?$StrTraitMFC_DLL@DV?$ChTraitsCRT@D@ATL@@@@@ATL@@QAE@PBD@Z
  0018c	3b f4		 cmp	 esi, esp
  0018e	e8 00 00 00 00	 call	 __RTC_CheckEsp
  00193	8b 55 d4	 mov	 edx, DWORD PTR $T2[ebp]
  00196	83 ca 01	 or	 edx, 1
  00199	89 55 d4	 mov	 DWORD PTR $T2[ebp], edx
  0019c	c7 45 fc ff ff
	ff ff		 mov	 DWORD PTR __$EHRec$[ebp+8], -1
  001a3	8b f4		 mov	 esi, esp
  001a5	8d 4d e8	 lea	 ecx, DWORD PTR _line$[ebp]
  001a8	ff 15 00 00 00
	00		 call	 DWORD PTR __imp_??1?$CStringT@DV?$StrTraitMFC_DLL@DV?$ChTraitsCRT@D@ATL@@@@@ATL@@QAE@XZ
  001ae	3b f4		 cmp	 esi, esp
  001b0	e8 00 00 00 00	 call	 __RTC_CheckEsp
  001b5	8b 45 08	 mov	 eax, DWORD PTR ___$ReturnUdt$[ebp]
  001b8	e9 35 01 00 00	 jmp	 $LN1@ReadLine
$LN11@ReadLine:

; 34   :         line += '\000';

  001bd	8b f4		 mov	 esi, esp
  001bf	6a 00		 push	 0
  001c1	8d 4d e8	 lea	 ecx, DWORD PTR _line$[ebp]
  001c4	ff 15 00 00 00
	00		 call	 DWORD PTR __imp_??Y?$CStringT@DV?$StrTraitMFC_DLL@DV?$ChTraitsCRT@D@ATL@@@@@ATL@@QAEAAV01@D@Z
  001ca	3b f4		 cmp	 esi, esp
  001cc	e8 00 00 00 00	 call	 __RTC_CheckEsp

; 35   :         line += '\000';

  001d1	8b f4		 mov	 esi, esp
  001d3	6a 00		 push	 0
  001d5	8d 4d e8	 lea	 ecx, DWORD PTR _line$[ebp]
  001d8	ff 15 00 00 00
	00		 call	 DWORD PTR __imp_??Y?$CStringT@DV?$StrTraitMFC_DLL@DV?$ChTraitsCRT@D@ATL@@@@@ATL@@QAEAAV01@D@Z
  001de	3b f4		 cmp	 esi, esp
  001e0	e8 00 00 00 00	 call	 __RTC_CheckEsp

; 36   :         return line;

  001e5	8b f4		 mov	 esi, esp
  001e7	8d 45 e8	 lea	 eax, DWORD PTR _line$[ebp]
  001ea	50		 push	 eax
  001eb	8b 4d 08	 mov	 ecx, DWORD PTR ___$ReturnUdt$[ebp]
  001ee	ff 15 00 00 00
	00		 call	 DWORD PTR __imp_??0?$CStringT@DV?$StrTraitMFC_DLL@DV?$ChTraitsCRT@D@ATL@@@@@ATL@@QAE@ABV01@@Z
  001f4	3b f4		 cmp	 esi, esp
  001f6	e8 00 00 00 00	 call	 __RTC_CheckEsp
  001fb	8b 4d d4	 mov	 ecx, DWORD PTR $T2[ebp]
  001fe	83 c9 01	 or	 ecx, 1
  00201	89 4d d4	 mov	 DWORD PTR $T2[ebp], ecx
  00204	c7 45 fc ff ff
	ff ff		 mov	 DWORD PTR __$EHRec$[ebp+8], -1
  0020b	8b f4		 mov	 esi, esp
  0020d	8d 4d e8	 lea	 ecx, DWORD PTR _line$[ebp]
  00210	ff 15 00 00 00
	00		 call	 DWORD PTR __imp_??1?$CStringT@DV?$StrTraitMFC_DLL@DV?$ChTraitsCRT@D@ATL@@@@@ATL@@QAE@XZ
  00216	3b f4		 cmp	 esi, esp
  00218	e8 00 00 00 00	 call	 __RTC_CheckEsp
  0021d	8b 45 08	 mov	 eax, DWORD PTR ___$ReturnUdt$[ebp]
  00220	e9 cd 00 00 00	 jmp	 $LN1@ReadLine
$LN10@ReadLine:

; 37   :       };
; 38   :       if (ch == '\012')

  00225	0f be 55 df	 movsx	 edx, BYTE PTR _ch$[ebp]
  00229	83 fa 0a	 cmp	 edx, 10			; 0000000aH
  0022c	0f 85 89 00 00
	00		 jne	 $LN12@ReadLine

; 39   :       {
; 40   :         line += '\n';

  00232	8b f4		 mov	 esi, esp
  00234	6a 0a		 push	 10			; 0000000aH
  00236	8d 4d e8	 lea	 ecx, DWORD PTR _line$[ebp]
  00239	ff 15 00 00 00
	00		 call	 DWORD PTR __imp_??Y?$CStringT@DV?$StrTraitMFC_DLL@DV?$ChTraitsCRT@D@ATL@@@@@ATL@@QAEAAV01@D@Z
  0023f	3b f4		 cmp	 esi, esp
  00241	e8 00 00 00 00	 call	 __RTC_CheckEsp

; 41   :         if (line[0] != '#') return line;

  00246	8b f4		 mov	 esi, esp
  00248	6a 00		 push	 0
  0024a	8d 4d e8	 lea	 ecx, DWORD PTR _line$[ebp]
  0024d	ff 15 00 00 00
	00		 call	 DWORD PTR __imp_??A?$CSimpleStringT@D$00@ATL@@QBEDH@Z
  00253	3b f4		 cmp	 esi, esp
  00255	e8 00 00 00 00	 call	 __RTC_CheckEsp
  0025a	0f be c0	 movsx	 eax, al
  0025d	83 f8 23	 cmp	 eax, 35			; 00000023H
  00260	74 3d		 je	 SHORT $LN13@ReadLine
  00262	8b f4		 mov	 esi, esp
  00264	8d 4d e8	 lea	 ecx, DWORD PTR _line$[ebp]
  00267	51		 push	 ecx
  00268	8b 4d 08	 mov	 ecx, DWORD PTR ___$ReturnUdt$[ebp]
  0026b	ff 15 00 00 00
	00		 call	 DWORD PTR __imp_??0?$CStringT@DV?$StrTraitMFC_DLL@DV?$ChTraitsCRT@D@ATL@@@@@ATL@@QAE@ABV01@@Z
  00271	3b f4		 cmp	 esi, esp
  00273	e8 00 00 00 00	 call	 __RTC_CheckEsp
  00278	8b 55 d4	 mov	 edx, DWORD PTR $T2[ebp]
  0027b	83 ca 01	 or	 edx, 1
  0027e	89 55 d4	 mov	 DWORD PTR $T2[ebp], edx
  00281	c7 45 fc ff ff
	ff ff		 mov	 DWORD PTR __$EHRec$[ebp+8], -1
  00288	8b f4		 mov	 esi, esp
  0028a	8d 4d e8	 lea	 ecx, DWORD PTR _line$[ebp]
  0028d	ff 15 00 00 00
	00		 call	 DWORD PTR __imp_??1?$CStringT@DV?$StrTraitMFC_DLL@DV?$ChTraitsCRT@D@ATL@@@@@ATL@@QAE@XZ
  00293	3b f4		 cmp	 esi, esp
  00295	e8 00 00 00 00	 call	 __RTC_CheckEsp
  0029a	8b 45 08	 mov	 eax, DWORD PTR ___$ReturnUdt$[ebp]
  0029d	eb 53		 jmp	 SHORT $LN1@ReadLine
$LN13@ReadLine:

; 42   :         line = "";

  0029f	8b f4		 mov	 esi, esp
  002a1	68 00 00 00 00	 push	 OFFSET $SG225438
  002a6	8d 4d e8	 lea	 ecx, DWORD PTR _line$[ebp]
  002a9	ff 15 00 00 00
	00		 call	 DWORD PTR __imp_??4?$CStringT@DV?$StrTraitMFC_DLL@DV?$ChTraitsCRT@D@ATL@@@@@ATL@@QAEAAV01@PBD@Z
  002af	3b f4		 cmp	 esi, esp
  002b1	e8 00 00 00 00	 call	 __RTC_CheckEsp

; 43   :         continue;

  002b6	e9 ab fd ff ff	 jmp	 $LN4@ReadLine
$LN12@ReadLine:

; 44   :       };
; 45   :     }

  002bb	eb 17		 jmp	 SHORT $LN9@ReadLine
$LN8@ReadLine:

; 46   :     else
; 47   :     {
; 48   :       line += ch;

  002bd	8b f4		 mov	 esi, esp
  002bf	0f b6 45 df	 movzx	 eax, BYTE PTR _ch$[ebp]
  002c3	50		 push	 eax
  002c4	8d 4d e8	 lea	 ecx, DWORD PTR _line$[ebp]
  002c7	ff 15 00 00 00
	00		 call	 DWORD PTR __imp_??Y?$CStringT@DV?$StrTraitMFC_DLL@DV?$ChTraitsCRT@D@ATL@@@@@ATL@@QAEAAV01@D@Z
  002cd	3b f4		 cmp	 esi, esp
  002cf	e8 00 00 00 00	 call	 __RTC_CheckEsp
$LN9@ReadLine:

; 49   :     };
; 50   :   };

  002d4	e9 8d fd ff ff	 jmp	 $LN4@ReadLine

; 51   : }

  002d9	c7 45 fc ff ff
	ff ff		 mov	 DWORD PTR __$EHRec$[ebp+8], -1
  002e0	8b f4		 mov	 esi, esp
  002e2	8d 4d e8	 lea	 ecx, DWORD PTR _line$[ebp]
  002e5	ff 15 00 00 00
	00		 call	 DWORD PTR __imp_??1?$CStringT@DV?$StrTraitMFC_DLL@DV?$ChTraitsCRT@D@ATL@@@@@ATL@@QAE@XZ
  002eb	3b f4		 cmp	 esi, esp
  002ed	e8 00 00 00 00	 call	 __RTC_CheckEsp
$LN1@ReadLine:
  002f2	52		 push	 edx
  002f3	8b cd		 mov	 ecx, ebp
  002f5	50		 push	 eax
  002f6	8d 15 00 00 00
	00		 lea	 edx, DWORD PTR $LN22@ReadLine
  002fc	e8 00 00 00 00	 call	 @_RTC_CheckStackVars@8
  00301	58		 pop	 eax
  00302	5a		 pop	 edx
  00303	8b 4d f4	 mov	 ecx, DWORD PTR __$EHRec$[ebp]
  00306	64 89 0d 00 00
	00 00		 mov	 DWORD PTR fs:0, ecx
  0030d	59		 pop	 ecx
  0030e	5e		 pop	 esi
  0030f	83 c4 2c	 add	 esp, 44			; 0000002cH
  00312	3b ec		 cmp	 ebp, esp
  00314	e8 00 00 00 00	 call	 __RTC_CheckEsp
  00319	8b e5		 mov	 esp, ebp
  0031b	5d		 pop	 ebp
  0031c	c2 04 00	 ret	 4
  0031f	90		 npad	 1
$LN22@ReadLine:
  00320	02 00 00 00	 DD	 2
  00324	00 00 00 00	 DD	 $LN21@ReadLine
$LN21@ReadLine:
  00328	e8 ff ff ff	 DD	 -24			; ffffffe8H
  0032c	04 00 00 00	 DD	 4
  00330	00 00 00 00	 DD	 $LN18@ReadLine
  00334	df ff ff ff	 DD	 -33			; ffffffdfH
  00338	01 00 00 00	 DD	 1
  0033c	00 00 00 00	 DD	 $LN19@ReadLine
$LN19@ReadLine:
  00340	63		 DB	 99			; 00000063H
  00341	68		 DB	 104			; 00000068H
  00342	00		 DB	 0
$LN18@ReadLine:
  00343	6c		 DB	 108			; 0000006cH
  00344	69		 DB	 105			; 00000069H
  00345	6e		 DB	 110			; 0000006eH
  00346	65		 DB	 101			; 00000065H
  00347	00		 DB	 0
_TEXT	ENDS
text$x	SEGMENT
__unwindfunclet$?ReadLine@arInput@@QAE?AV?$CStringT@DV?$StrTraitMFC_DLL@DV?$ChTraitsCRT@D@ATL@@@@@ATL@@XZ$0:
  00000	8b f4		 mov	 esi, esp
  00002	8d 4d e8	 lea	 ecx, DWORD PTR _line$[ebp]
  00005	ff 15 00 00 00
	00		 call	 DWORD PTR __imp_??1?$CStringT@DV?$StrTraitMFC_DLL@DV?$ChTraitsCRT@D@ATL@@@@@ATL@@QAE@XZ
  0000b	3b f4		 cmp	 esi, esp
  0000d	e9 00 00 00 00	 jmp	 __RTC_CheckEsp
  00012	cc		 int	 3
  00013	cc		 int	 3
  00014	cc		 int	 3
  00015	cc		 int	 3
  00016	cc		 int	 3
__ehhandler$?ReadLine@arInput@@QAE?AV?$CStringT@DV?$StrTraitMFC_DLL@DV?$ChTraitsCRT@D@ATL@@@@@ATL@@XZ:
  00017	90		 npad	 1
  00018	90		 npad	 1
  00019	8b 54 24 08	 mov	 edx, DWORD PTR [esp+8]
  0001d	8d 42 0c	 lea	 eax, DWORD PTR [edx+12]
  00020	8b 4a d8	 mov	 ecx, DWORD PTR [edx-40]
  00023	33 c8		 xor	 ecx, eax
  00025	e8 00 00 00 00	 call	 @__security_check_cookie@4
  0002a	b8 00 00 00 00	 mov	 eax, OFFSET __ehfuncinfo$?ReadLine@arInput@@QAE?AV?$CStringT@DV?$StrTraitMFC_DLL@DV?$ChTraitsCRT@D@ATL@@@@@ATL@@XZ
  0002f	e9 00 00 00 00	 jmp	 ___CxxFrameHandler3
text$x	ENDS
?ReadLine@arInput@@QAE?AV?$CStringT@DV?$StrTraitMFC_DLL@DV?$ChTraitsCRT@D@ATL@@@@@ATL@@XZ ENDP ; arInput::ReadLine
; Function compile flags: /Odtp /RTCsu
; File C:\Users\15485\Desktop\工程之星点格棋\DotBoxLib\IO.cpp
_TEXT	SEGMENT
_this$ = -4						; size = 4
??1arInput@@QAE@XZ PROC					; arInput::~arInput
; _this$ = ecx

; 12   : {

  00000	55		 push	 ebp
  00001	8b ec		 mov	 ebp, esp
  00003	51		 push	 ecx
  00004	89 4d fc	 mov	 DWORD PTR _this$[ebp], ecx

; 13   : }

  00007	8b e5		 mov	 esp, ebp
  00009	5d		 pop	 ebp
  0000a	c3		 ret	 0
??1arInput@@QAE@XZ ENDP					; arInput::~arInput
_TEXT	ENDS
; Function compile flags: /Odtp /RTCsu
; File C:\Users\15485\Desktop\工程之星点格棋\DotBoxLib\IO.cpp
_TEXT	SEGMENT
_this$ = -4						; size = 4
_ar$ = 8						; size = 4
??0arInput@@QAE@PAVCArchive@@@Z PROC			; arInput::arInput
; _this$ = ecx

; 7    : {

  00000	55		 push	 ebp
  00001	8b ec		 mov	 ebp, esp
  00003	51		 push	 ecx
  00004	89 4d fc	 mov	 DWORD PTR _this$[ebp], ecx

; 8    :   m_ar = ar;

  00007	8b 45 fc	 mov	 eax, DWORD PTR _this$[ebp]
  0000a	8b 4d 08	 mov	 ecx, DWORD PTR _ar$[ebp]
  0000d	89 08		 mov	 DWORD PTR [eax], ecx

; 9    : }

  0000f	8b 45 fc	 mov	 eax, DWORD PTR _this$[ebp]
  00012	8b e5		 mov	 esp, ebp
  00014	5d		 pop	 ebp
  00015	c2 04 00	 ret	 4
??0arInput@@QAE@PAVCArchive@@@Z ENDP			; arInput::arInput
_TEXT	ENDS
; Function compile flags: /Odtp /RTCsu
; File G:\Microsoft Visual Studio\2022\Community\VC\Tools\MSVC\14.35.32215\atlmfc\include\atltrace.h
;	COMDAT ?RegisterCategory@CTrace@ATL@@SAXPBDI@Z
_TEXT	SEGMENT
_buffer$ = -264						; size = 256
__$ArrayPad$ = -4					; size = 4
_pszCategory$ = 8					; size = 4
_nCategory$ = 12					; size = 4
?RegisterCategory@CTrace@ATL@@SAXPBDI@Z PROC		; ATL::CTrace::RegisterCategory, COMDAT

; 329  : 	{

  00000	55		 push	 ebp
  00001	8b ec		 mov	 ebp, esp
  00003	81 ec 0c 01 00
	00		 sub	 esp, 268		; 0000010cH
  00009	56		 push	 esi
  0000a	57		 push	 edi
  0000b	8d bd f4 fe ff
	ff		 lea	 edi, DWORD PTR [ebp-268]
  00011	b9 43 00 00 00	 mov	 ecx, 67			; 00000043H
  00016	b8 cc cc cc cc	 mov	 eax, -858993460		; ccccccccH
  0001b	f3 ab		 rep stosd
  0001d	a1 00 00 00 00	 mov	 eax, DWORD PTR ___security_cookie
  00022	33 c5		 xor	 eax, ebp
  00024	89 45 fc	 mov	 DWORD PTR __$ArrayPad$[ebp], eax

; 330  : 		if (pszCategory == nullptr)

  00027	83 7d 08 00	 cmp	 DWORD PTR _pszCategory$[ebp], 0
  0002b	75 05		 jne	 SHORT $LN2@RegisterCa

; 331  : 		{
; 332  : 			return;

  0002d	e9 bb 00 00 00	 jmp	 $LN1@RegisterCa
$LN2@RegisterCa:

; 333  : 		}
; 334  : 
; 335  : 		if (m_nLastCategory >= MaxCategoryArray) 

  00032	83 3d 00 00 00
	00 20		 cmp	 DWORD PTR ?m_nLastCategory@CTrace@ATL@@1IA, 32 ; ATL::CTrace::m_nLastCategory, 00000020H
  00039	72 36		 jb	 SHORT $LN3@RegisterCa

; 336  : 		{
; 337  : 			ATLASSERT(false && "Too many categories defined");

  0003b	33 c0		 xor	 eax, eax
  0003d	75 30		 jne	 SHORT $LN5@RegisterCa
  0003f	8b f4		 mov	 esi, esp
  00041	68 00 00 00 00	 push	 OFFSET ??_C@_1EO@EBPPKGOM@?$AAf?$AAa?$AAl?$AAs?$AAe?$AA?5?$AA?$CG?$AA?$CG?$AA?5?$AA?$CC?$AAT?$AAo?$AAo?$AA?5?$AAm@
  00046	68 00 00 00 00	 push	 OFFSET ??_C@_17CNPHIMPH@?$AA?$CF?$AAl?$AAs@
  0004b	6a 00		 push	 0
  0004d	68 51 01 00 00	 push	 337			; 00000151H
  00052	68 00 00 00 00	 push	 OFFSET ??_C@_1LM@KONDCONO@?$AAG?$AA?3?$AA?2?$AAM?$AAi?$AAc?$AAr?$AAo?$AAs?$AAo?$AAf?$AAt?$AA?5?$AAV?$AAi@
  00057	6a 02		 push	 2
  00059	ff 15 00 00 00
	00		 call	 DWORD PTR __imp___CrtDbgReportW
  0005f	83 c4 18	 add	 esp, 24			; 00000018H
  00062	3b f4		 cmp	 esi, esp
  00064	e8 00 00 00 00	 call	 __RTC_CheckEsp
  00069	83 f8 01	 cmp	 eax, 1
  0006c	75 01		 jne	 SHORT $LN5@RegisterCa
  0006e	cc		 int	 3
$LN5@RegisterCa:

; 338  : 			return;

  0006f	eb 7c		 jmp	 SHORT $LN1@RegisterCa
$LN3@RegisterCa:

; 339  : 		}
; 340  : 
; 341  : 		m_nMap[m_nLastCategory].nCategory = nCategory;

  00071	69 15 00 00 00
	00 04 01 00 00	 imul	 edx, DWORD PTR ?m_nLastCategory@CTrace@ATL@@1IA, 260 ; ATL::CTrace::m_nLastCategory
  0007b	8b 45 0c	 mov	 eax, DWORD PTR _nCategory$[ebp]
  0007e	89 82 00 00 00
	00		 mov	 DWORD PTR ?m_nMap@CTrace@ATL@@1PAUCategoryMap@12@A[edx], eax

; 342  : #ifdef _UNICODE
; 343  : 		wcscpy_s(m_nMap[m_nLastCategory].categryName, MaxLengthOfCategoryName - 1, pszCategory);
; 344  : #else
; 345  : 		wchar_t buffer[MaxLengthOfCategoryName] = { 0 };	

  00084	68 00 01 00 00	 push	 256			; 00000100H
  00089	6a 00		 push	 0
  0008b	8d 8d f8 fe ff
	ff		 lea	 ecx, DWORD PTR _buffer$[ebp]
  00091	51		 push	 ecx
  00092	e8 00 00 00 00	 call	 _memset
  00097	83 c4 0c	 add	 esp, 12			; 0000000cH

; 346  : #if _MSC_VER < 1900
; 347  : 		swprintf_s(buffer, MaxLengthOfCategoryName - 1, L"%S", pszCategory);
; 348  : #else
; 349  : 		swprintf_s(buffer, MaxLengthOfCategoryName - 1, L"%hs", pszCategory);

  0009a	8b 55 08	 mov	 edx, DWORD PTR _pszCategory$[ebp]
  0009d	52		 push	 edx
  0009e	68 00 00 00 00	 push	 OFFSET ??_C@_17LGGGMOOB@?$AA?$CF?$AAh?$AAs@
  000a3	6a 7f		 push	 127			; 0000007fH
  000a5	8d 85 f8 fe ff
	ff		 lea	 eax, DWORD PTR _buffer$[ebp]
  000ab	50		 push	 eax
  000ac	e8 00 00 00 00	 call	 _swprintf_s
  000b1	83 c4 10	 add	 esp, 16			; 00000010H

; 350  : #endif
; 351  : 		wcscpy_s(m_nMap[m_nLastCategory].categryName, MaxLengthOfCategoryName - 1, buffer);

  000b4	8b f4		 mov	 esi, esp
  000b6	8d 8d f8 fe ff
	ff		 lea	 ecx, DWORD PTR _buffer$[ebp]
  000bc	51		 push	 ecx
  000bd	6a 7f		 push	 127			; 0000007fH
  000bf	69 15 00 00 00
	00 04 01 00 00	 imul	 edx, DWORD PTR ?m_nLastCategory@CTrace@ATL@@1IA, 260 ; ATL::CTrace::m_nLastCategory
  000c9	81 c2 04 00 00
	00		 add	 edx, OFFSET ?m_nMap@CTrace@ATL@@1PAUCategoryMap@12@A+4
  000cf	52		 push	 edx
  000d0	ff 15 00 00 00
	00		 call	 DWORD PTR __imp__wcscpy_s
  000d6	83 c4 0c	 add	 esp, 12			; 0000000cH
  000d9	3b f4		 cmp	 esi, esp
  000db	e8 00 00 00 00	 call	 __RTC_CheckEsp

; 352  : #endif
; 353  : 	
; 354  : 		m_nLastCategory++;

  000e0	a1 00 00 00 00	 mov	 eax, DWORD PTR ?m_nLastCategory@CTrace@ATL@@1IA ; ATL::CTrace::m_nLastCategory
  000e5	83 c0 01	 add	 eax, 1
  000e8	a3 00 00 00 00	 mov	 DWORD PTR ?m_nLastCategory@CTrace@ATL@@1IA, eax ; ATL::CTrace::m_nLastCategory
$LN1@RegisterCa:

; 355  : 	}

  000ed	52		 push	 edx
  000ee	8b cd		 mov	 ecx, ebp
  000f0	50		 push	 eax
  000f1	8d 15 00 00 00
	00		 lea	 edx, DWORD PTR $LN8@RegisterCa
  000f7	e8 00 00 00 00	 call	 @_RTC_CheckStackVars@8
  000fc	58		 pop	 eax
  000fd	5a		 pop	 edx
  000fe	5f		 pop	 edi
  000ff	5e		 pop	 esi
  00100	8b 4d fc	 mov	 ecx, DWORD PTR __$ArrayPad$[ebp]
  00103	33 cd		 xor	 ecx, ebp
  00105	e8 00 00 00 00	 call	 @__security_check_cookie@4
  0010a	81 c4 0c 01 00
	00		 add	 esp, 268		; 0000010cH
  00110	3b ec		 cmp	 ebp, esp
  00112	e8 00 00 00 00	 call	 __RTC_CheckEsp
  00117	8b e5		 mov	 esp, ebp
  00119	5d		 pop	 ebp
  0011a	c3		 ret	 0
  0011b	90		 npad	 1
$LN8@RegisterCa:
  0011c	01 00 00 00	 DD	 1
  00120	00 00 00 00	 DD	 $LN7@RegisterCa
$LN7@RegisterCa:
  00124	f8 fe ff ff	 DD	 -264			; fffffef8H
  00128	00 01 00 00	 DD	 256			; 00000100H
  0012c	00 00 00 00	 DD	 $LN6@RegisterCa
$LN6@RegisterCa:
  00130	62		 DB	 98			; 00000062H
  00131	75		 DB	 117			; 00000075H
  00132	66		 DB	 102			; 00000066H
  00133	66		 DB	 102			; 00000066H
  00134	65		 DB	 101			; 00000065H
  00135	72		 DB	 114			; 00000072H
  00136	00		 DB	 0
?RegisterCategory@CTrace@ATL@@SAXPBDI@Z ENDP		; ATL::CTrace::RegisterCategory
_TEXT	ENDS
; Function compile flags: /Odtp /RTCsu
; File G:\Microsoft Visual Studio\2022\Community\VC\Tools\MSVC\14.35.32215\atlmfc\include\atltrace.h
;	COMDAT ??__EatlTraceString@ATL@@YAXXZ
text$di	SEGMENT
??__EatlTraceString@ATL@@YAXXZ PROC			; ATL::`dynamic initializer for 'atlTraceString'', COMDAT

; 114  : __declspec(selectany) CTraceCategoryEx<CTraceCategoryEx<>::TraceString> atlTraceString(_T("atlTraceString"));

  00000	55		 push	 ebp
  00001	8b ec		 mov	 ebp, esp
  00003	68 00 00 00 00	 push	 OFFSET $SG74238
  00008	b9 00 00 00 00	 mov	 ecx, OFFSET ?atlTraceString@ATL@@3V?$CTraceCategoryEx@$0CAAAA@$0A@@1@A ; ATL::atlTraceString
  0000d	e8 00 00 00 00	 call	 ??0?$CTraceCategoryEx@$0CAAAA@$0A@@ATL@@QAE@PBD@Z ; ATL::CTraceCategoryEx<131072,0>::CTraceCategoryEx<131072,0>
  00012	3b ec		 cmp	 ebp, esp
  00014	e8 00 00 00 00	 call	 __RTC_CheckEsp
  00019	5d		 pop	 ebp
  0001a	c3		 ret	 0
??__EatlTraceString@ATL@@YAXXZ ENDP			; ATL::`dynamic initializer for 'atlTraceString''
text$di	ENDS
; Function compile flags: /Odtp /RTCsu
; File G:\Microsoft Visual Studio\2022\Community\VC\Tools\MSVC\14.35.32215\atlmfc\include\atltrace.h
;	COMDAT ??0?$CTraceCategoryEx@$0CAAAA@$0A@@ATL@@QAE@PBD@Z
_TEXT	SEGMENT
_this$ = -4						; size = 4
_pszCategoryName$ = 8					; size = 4
??0?$CTraceCategoryEx@$0CAAAA@$0A@@ATL@@QAE@PBD@Z PROC	; ATL::CTraceCategoryEx<131072,0>::CTraceCategoryEx<131072,0>, COMDAT
; _this$ = ecx

; 480  : {

  00000	55		 push	 ebp
  00001	8b ec		 mov	 ebp, esp
  00003	51		 push	 ecx
  00004	c7 45 fc cc cc
	cc cc		 mov	 DWORD PTR [ebp-4], -858993460 ; ccccccccH
  0000b	89 4d fc	 mov	 DWORD PTR _this$[ebp], ecx

; 481  : 	CTrace::RegisterCategory(pszCategoryName, traceCategory);

  0000e	68 00 00 02 00	 push	 131072			; 00020000H
  00013	8b 45 08	 mov	 eax, DWORD PTR _pszCategoryName$[ebp]
  00016	50		 push	 eax
  00017	e8 00 00 00 00	 call	 ?RegisterCategory@CTrace@ATL@@SAXPBDI@Z ; ATL::CTrace::RegisterCategory
  0001c	83 c4 08	 add	 esp, 8

; 482  : }

  0001f	8b 45 fc	 mov	 eax, DWORD PTR _this$[ebp]
  00022	83 c4 04	 add	 esp, 4
  00025	3b ec		 cmp	 ebp, esp
  00027	e8 00 00 00 00	 call	 __RTC_CheckEsp
  0002c	8b e5		 mov	 esp, ebp
  0002e	5d		 pop	 ebp
  0002f	c2 04 00	 ret	 4
??0?$CTraceCategoryEx@$0CAAAA@$0A@@ATL@@QAE@PBD@Z ENDP	; ATL::CTraceCategoryEx<131072,0>::CTraceCategoryEx<131072,0>
_TEXT	ENDS
; Function compile flags: /Odtp /RTCsu
; File G:\Microsoft Visual Studio\2022\Community\VC\Tools\MSVC\14.35.32215\atlmfc\include\atltrace.h
;	COMDAT ??__EatlTraceException@ATL@@YAXXZ
text$di	SEGMENT
??__EatlTraceException@ATL@@YAXXZ PROC			; ATL::`dynamic initializer for 'atlTraceException'', COMDAT

; 110  : __declspec(selectany) CTraceCategoryEx<CTraceCategoryEx<>::TraceException> atlTraceException(_T("atlTraceException"));

  00000	55		 push	 ebp
  00001	8b ec		 mov	 ebp, esp
  00003	68 00 00 00 00	 push	 OFFSET $SG74042
  00008	b9 00 00 00 00	 mov	 ecx, OFFSET ?atlTraceException@ATL@@3V?$CTraceCategoryEx@$0CAAA@$0A@@1@A ; ATL::atlTraceException
  0000d	e8 00 00 00 00	 call	 ??0?$CTraceCategoryEx@$0CAAA@$0A@@ATL@@QAE@PBD@Z ; ATL::CTraceCategoryEx<8192,0>::CTraceCategoryEx<8192,0>
  00012	3b ec		 cmp	 ebp, esp
  00014	e8 00 00 00 00	 call	 __RTC_CheckEsp
  00019	5d		 pop	 ebp
  0001a	c3		 ret	 0
??__EatlTraceException@ATL@@YAXXZ ENDP			; ATL::`dynamic initializer for 'atlTraceException''
text$di	ENDS
; Function compile flags: /Odtp /RTCsu
; File G:\Microsoft Visual Studio\2022\Community\VC\Tools\MSVC\14.35.32215\atlmfc\include\atltrace.h
;	COMDAT ??0?$CTraceCategoryEx@$0CAAA@$0A@@ATL@@QAE@PBD@Z
_TEXT	SEGMENT
_this$ = -4						; size = 4
_pszCategoryName$ = 8					; size = 4
??0?$CTraceCategoryEx@$0CAAA@$0A@@ATL@@QAE@PBD@Z PROC	; ATL::CTraceCategoryEx<8192,0>::CTraceCategoryEx<8192,0>, COMDAT
; _this$ = ecx

; 480  : {

  00000	55		 push	 ebp
  00001	8b ec		 mov	 ebp, esp
  00003	51		 push	 ecx
  00004	c7 45 fc cc cc
	cc cc		 mov	 DWORD PTR [ebp-4], -858993460 ; ccccccccH
  0000b	89 4d fc	 mov	 DWORD PTR _this$[ebp], ecx

; 481  : 	CTrace::RegisterCategory(pszCategoryName, traceCategory);

  0000e	68 00 20 00 00	 push	 8192			; 00002000H
  00013	8b 45 08	 mov	 eax, DWORD PTR _pszCategoryName$[ebp]
  00016	50		 push	 eax
  00017	e8 00 00 00 00	 call	 ?RegisterCategory@CTrace@ATL@@SAXPBDI@Z ; ATL::CTrace::RegisterCategory
  0001c	83 c4 08	 add	 esp, 8

; 482  : }

  0001f	8b 45 fc	 mov	 eax, DWORD PTR _this$[ebp]
  00022	83 c4 04	 add	 esp, 4
  00025	3b ec		 cmp	 ebp, esp
  00027	e8 00 00 00 00	 call	 __RTC_CheckEsp
  0002c	8b e5		 mov	 esp, ebp
  0002e	5d		 pop	 ebp
  0002f	c2 04 00	 ret	 4
??0?$CTraceCategoryEx@$0CAAA@$0A@@ATL@@QAE@PBD@Z ENDP	; ATL::CTraceCategoryEx<8192,0>::CTraceCategoryEx<8192,0>
_TEXT	ENDS
; Function compile flags: /Odtp /RTCsu
; File D:\Windows Kits\10\Include\10.0.22000.0\ucrt\corecrt_wstdio.h
;	COMDAT _swprintf_s
_TEXT	SEGMENT
__ArgList$ = -8						; size = 4
__Result$ = -4						; size = 4
__Buffer$ = 8						; size = 4
__BufferCount$ = 12					; size = 4
__Format$ = 16						; size = 4
_swprintf_s PROC					; COMDAT

; 1523 :         {

  00000	55		 push	 ebp
  00001	8b ec		 mov	 ebp, esp
  00003	83 ec 0c	 sub	 esp, 12			; 0000000cH
  00006	c7 45 f4 cc cc
	cc cc		 mov	 DWORD PTR [ebp-12], -858993460 ; ccccccccH
  0000d	c7 45 f8 cc cc
	cc cc		 mov	 DWORD PTR [ebp-8], -858993460 ; ccccccccH
  00014	c7 45 fc cc cc
	cc cc		 mov	 DWORD PTR [ebp-4], -858993460 ; ccccccccH

; 1524 :             int _Result;
; 1525 :             va_list _ArgList;
; 1526 :             __crt_va_start(_ArgList, _Format);

  0001b	8d 45 14	 lea	 eax, DWORD PTR __Format$[ebp+4]
  0001e	89 45 f8	 mov	 DWORD PTR __ArgList$[ebp], eax

; 1527 :             _Result = _vswprintf_s_l(_Buffer, _BufferCount, _Format, NULL, _ArgList);

  00021	8b 4d f8	 mov	 ecx, DWORD PTR __ArgList$[ebp]
  00024	51		 push	 ecx
  00025	6a 00		 push	 0
  00027	8b 55 10	 mov	 edx, DWORD PTR __Format$[ebp]
  0002a	52		 push	 edx
  0002b	8b 45 0c	 mov	 eax, DWORD PTR __BufferCount$[ebp]
  0002e	50		 push	 eax
  0002f	8b 4d 08	 mov	 ecx, DWORD PTR __Buffer$[ebp]
  00032	51		 push	 ecx
  00033	e8 00 00 00 00	 call	 __vswprintf_s_l
  00038	83 c4 14	 add	 esp, 20			; 00000014H
  0003b	89 45 fc	 mov	 DWORD PTR __Result$[ebp], eax

; 1528 :             __crt_va_end(_ArgList);

  0003e	c7 45 f8 00 00
	00 00		 mov	 DWORD PTR __ArgList$[ebp], 0

; 1529 :             return _Result;

  00045	8b 45 fc	 mov	 eax, DWORD PTR __Result$[ebp]

; 1530 :         }

  00048	83 c4 0c	 add	 esp, 12			; 0000000cH
  0004b	3b ec		 cmp	 ebp, esp
  0004d	e8 00 00 00 00	 call	 __RTC_CheckEsp
  00052	8b e5		 mov	 esp, ebp
  00054	5d		 pop	 ebp
  00055	c3		 ret	 0
_swprintf_s ENDP
_TEXT	ENDS
; Function compile flags: /Odtp /RTCsu
; File D:\Windows Kits\10\Include\10.0.22000.0\ucrt\corecrt_wstdio.h
;	COMDAT __vswprintf_s_l
_TEXT	SEGMENT
tv73 = -8						; size = 4
__Result$ = -4						; size = 4
__Buffer$ = 8						; size = 4
__BufferCount$ = 12					; size = 4
__Format$ = 16						; size = 4
__Locale$ = 20						; size = 4
__ArgList$ = 24						; size = 4
__vswprintf_s_l PROC					; COMDAT

; 1256 :     {

  00000	55		 push	 ebp
  00001	8b ec		 mov	 ebp, esp
  00003	83 ec 08	 sub	 esp, 8
  00006	56		 push	 esi
  00007	c7 45 f8 cc cc
	cc cc		 mov	 DWORD PTR [ebp-8], -858993460 ; ccccccccH
  0000e	c7 45 fc cc cc
	cc cc		 mov	 DWORD PTR [ebp-4], -858993460 ; ccccccccH

; 1257 :         int const _Result = __stdio_common_vswprintf_s(

  00015	8b f4		 mov	 esi, esp
  00017	8b 45 18	 mov	 eax, DWORD PTR __ArgList$[ebp]
  0001a	50		 push	 eax
  0001b	8b 4d 14	 mov	 ecx, DWORD PTR __Locale$[ebp]
  0001e	51		 push	 ecx
  0001f	8b 55 10	 mov	 edx, DWORD PTR __Format$[ebp]
  00022	52		 push	 edx
  00023	8b 45 0c	 mov	 eax, DWORD PTR __BufferCount$[ebp]
  00026	50		 push	 eax
  00027	8b 4d 08	 mov	 ecx, DWORD PTR __Buffer$[ebp]
  0002a	51		 push	 ecx
  0002b	e8 00 00 00 00	 call	 ___local_stdio_printf_options
  00030	8b 50 04	 mov	 edx, DWORD PTR [eax+4]
  00033	52		 push	 edx
  00034	8b 00		 mov	 eax, DWORD PTR [eax]
  00036	50		 push	 eax
  00037	ff 15 00 00 00
	00		 call	 DWORD PTR __imp____stdio_common_vswprintf_s
  0003d	83 c4 1c	 add	 esp, 28			; 0000001cH
  00040	3b f4		 cmp	 esi, esp
  00042	e8 00 00 00 00	 call	 __RTC_CheckEsp
  00047	89 45 fc	 mov	 DWORD PTR __Result$[ebp], eax

; 1258 :             _CRT_INTERNAL_LOCAL_PRINTF_OPTIONS,
; 1259 :             _Buffer, _BufferCount, _Format, _Locale, _ArgList);
; 1260 : 
; 1261 :         return _Result < 0 ? -1 : _Result;

  0004a	83 7d fc 00	 cmp	 DWORD PTR __Result$[ebp], 0
  0004e	7d 09		 jge	 SHORT $LN3@vswprintf_
  00050	c7 45 f8 ff ff
	ff ff		 mov	 DWORD PTR tv73[ebp], -1
  00057	eb 06		 jmp	 SHORT $LN4@vswprintf_
$LN3@vswprintf_:
  00059	8b 4d fc	 mov	 ecx, DWORD PTR __Result$[ebp]
  0005c	89 4d f8	 mov	 DWORD PTR tv73[ebp], ecx
$LN4@vswprintf_:
  0005f	8b 45 f8	 mov	 eax, DWORD PTR tv73[ebp]

; 1262 :     }

  00062	5e		 pop	 esi
  00063	83 c4 08	 add	 esp, 8
  00066	3b ec		 cmp	 ebp, esp
  00068	e8 00 00 00 00	 call	 __RTC_CheckEsp
  0006d	8b e5		 mov	 esp, ebp
  0006f	5d		 pop	 ebp
  00070	c3		 ret	 0
__vswprintf_s_l ENDP
_TEXT	ENDS
; Function compile flags: /Odtp /RTCsu
; File D:\Windows Kits\10\Include\10.0.22000.0\ucrt\corecrt_stdio_config.h
;	COMDAT ___local_stdio_printf_options
_TEXT	SEGMENT
___local_stdio_printf_options PROC			; COMDAT

; 90   :     {

  00000	55		 push	 ebp
  00001	8b ec		 mov	 ebp, esp

; 91   :         static unsigned __int64 _OptionsStorage;
; 92   :         return &_OptionsStorage;

  00003	b8 00 00 00 00	 mov	 eax, OFFSET ?_OptionsStorage@?1??__local_stdio_printf_options@@9@4_KA ; `__local_stdio_printf_options'::`2'::_OptionsStorage

; 93   :     }

  00008	5d		 pop	 ebp
  00009	c3		 ret	 0
___local_stdio_printf_options ENDP
_TEXT	ENDS
; Function compile flags: /Odtp /RTCsu
; File C:\Users\15485\Desktop\工程之星点格棋\DotBoxLib\IO.cpp
;	COMDAT ?__empty_global_delete@@YAXPAXI@Z
_TEXT	SEGMENT
___formal$ = 8						; size = 4
___formal$ = 12						; size = 4
?__empty_global_delete@@YAXPAXI@Z PROC			; __empty_global_delete, COMDAT

  00000	55		 push	 ebp
  00001	8b ec		 mov	 ebp, esp
  00003	5d		 pop	 ebp
  00004	c3		 ret	 0
?__empty_global_delete@@YAXPAXI@Z ENDP			; __empty_global_delete
_TEXT	ENDS
; Function compile flags: /Odtp /RTCsu
; File C:\Users\15485\Desktop\工程之星点格棋\DotBoxLib\IO.cpp
;	COMDAT ?__empty_global_delete@@YAXPAX@Z
_TEXT	SEGMENT
___formal$ = 8						; size = 4
?__empty_global_delete@@YAXPAX@Z PROC			; __empty_global_delete, COMDAT

  00000	55		 push	 ebp
  00001	8b ec		 mov	 ebp, esp
  00003	5d		 pop	 ebp
  00004	c3		 ret	 0
?__empty_global_delete@@YAXPAX@Z ENDP			; __empty_global_delete
_TEXT	ENDS
END
