; Listing generated by Microsoft (R) Optimizing Compiler Version 19.35.32217.1 

	TITLE	C:\Users\15485\Desktop\工程之星点格棋\工程之星点格棋\Debug\NewBoxes.obj
	.686P
	.XMM
	include listing.inc
	.model	flat

INCLUDELIB MSVCRTD
INCLUDELIB OLDNAMES

PUBLIC	?tOption@@3_NA					; tOption
_BSS	SEGMENT
?tOption@@3_NA DB 01H DUP (?)				; tOption
_BSS	ENDS
CONST	SEGMENT
$SG74042 DB	'atlTraceException', 00H
$SG226121 DB	00H
	ORG $+1
$SG226119 DB	'Local AppWizard-Generated Applications', 00H
	ORG $+1
$SG226144 DB	' error', 00H
	ORG $+1
$SG226145 DB	'Unknown Command Parameter', 00H
CONST	ENDS
PUBLIC	?__empty_global_delete@@YAXPAX@Z		; __empty_global_delete
PUBLIC	?__empty_global_delete@@YAXPAXI@Z		; __empty_global_delete
PUBLIC	___local_stdio_printf_options
PUBLIC	__vswprintf_s_l
PUBLIC	_swprintf_s
PUBLIC	??0?$CTraceCategoryEx@$0CAAA@$0A@@ATL@@QAE@PBD@Z ; ATL::CTraceCategoryEx<8192,0>::CTraceCategoryEx<8192,0>
PUBLIC	?RegisterCategory@CTrace@ATL@@SAXPBDI@Z		; ATL::CTrace::RegisterCategory
PUBLIC	?SupportsRestartManager@CWinApp@@UBEHXZ		; CWinApp::SupportsRestartManager
PUBLIC	?SupportsApplicationRecovery@CWinApp@@UBEHXZ	; CWinApp::SupportsApplicationRecovery
PUBLIC	?SupportsAutosaveAtRestart@CWinApp@@UBEHXZ	; CWinApp::SupportsAutosaveAtRestart
PUBLIC	?SupportsAutosaveAtInterval@CWinApp@@UBEHXZ	; CWinApp::SupportsAutosaveAtInterval
PUBLIC	?ReopenPreviousFilesAtRestart@CWinApp@@UBEHXZ	; CWinApp::ReopenPreviousFilesAtRestart
PUBLIC	?RestoreAutosavedFilesAtRestart@CWinApp@@UBEHXZ	; CWinApp::RestoreAutosavedFilesAtRestart
PUBLIC	?GetApplicationRestartFlags@CWinApp@@UAEKXZ	; CWinApp::GetApplicationRestartFlags
PUBLIC	?GetApplicationRecoveryParameter@CWinApp@@UAEPAXXZ ; CWinApp::GetApplicationRecoveryParameter
PUBLIC	?GetApplicationRecoveryPingInterval@CWinApp@@UAEKXZ ; CWinApp::GetApplicationRecoveryPingInterval
PUBLIC	??0CNewBoxesApp@@QAE@XZ				; CNewBoxesApp::CNewBoxesApp
PUBLIC	?InitInstance@CNewBoxesApp@@UAEHXZ		; CNewBoxesApp::InitInstance
PUBLIC	?OnAppAbout@CNewBoxesApp@@QAEXXZ		; CNewBoxesApp::OnAppAbout
PUBLIC	?GetThisMessageMap@CNewBoxesApp@@KGPBUAFX_MSGMAP@@XZ ; CNewBoxesApp::GetThisMessageMap
PUBLIC	?GetMessageMap@CNewBoxesApp@@MBEPBUAFX_MSGMAP@@XZ ; CNewBoxesApp::GetMessageMap
PUBLIC	??1CNewBoxesApp@@UAE@XZ				; CNewBoxesApp::~CNewBoxesApp
PUBLIC	??_GCNewBoxesApp@@UAEPAXI@Z			; CNewBoxesApp::`scalar deleting destructor'
PUBLIC	?ParseParam@CBoxesCommandLineInfo@@EAEXPBDHH@Z	; CBoxesCommandLineInfo::ParseParam
PUBLIC	??0CBoxesCommandLineInfo@@QAE@XZ		; CBoxesCommandLineInfo::CBoxesCommandLineInfo
PUBLIC	??1CBoxesCommandLineInfo@@UAE@XZ		; CBoxesCommandLineInfo::~CBoxesCommandLineInfo
PUBLIC	??_GCBoxesCommandLineInfo@@UAEPAXI@Z		; CBoxesCommandLineInfo::`scalar deleting destructor'
PUBLIC	??0CAboutDlg@@QAE@XZ				; CAboutDlg::CAboutDlg
PUBLIC	?DoDataExchange@CAboutDlg@@MAEXPAVCDataExchange@@@Z ; CAboutDlg::DoDataExchange
PUBLIC	?GetThisMessageMap@CAboutDlg@@KGPBUAFX_MSGMAP@@XZ ; CAboutDlg::GetThisMessageMap
PUBLIC	?GetMessageMap@CAboutDlg@@MBEPBUAFX_MSGMAP@@XZ	; CAboutDlg::GetMessageMap
PUBLIC	??1CAboutDlg@@UAE@XZ				; CAboutDlg::~CAboutDlg
PUBLIC	??_GCAboutDlg@@UAEPAXI@Z			; CAboutDlg::`scalar deleting destructor'
PUBLIC	?_OptionsStorage@?1??__local_stdio_printf_options@@9@4_KA ; `__local_stdio_printf_options'::`2'::_OptionsStorage
PUBLIC	??_C@_17CNPHIMPH@?$AA?$CF?$AAl?$AAs@		; `string'
PUBLIC	?atlTraceException@ATL@@3V?$CTraceCategoryEx@$0CAAA@$0A@@1@A ; ATL::atlTraceException
PUBLIC	?m_nLastCategory@CTrace@ATL@@1IA		; ATL::CTrace::m_nLastCategory
PUBLIC	?m_nMap@CTrace@ATL@@1PAUCategoryMap@12@A	; ATL::CTrace::m_nMap
PUBLIC	??_C@_17LGGGMOOB@?$AA?$CF?$AAh?$AAs@		; `string'
PUBLIC	??_C@_1EO@EBPPKGOM@?$AAf?$AAa?$AAl?$AAs?$AAe?$AA?5?$AA?$CG?$AA?$CG?$AA?5?$AA?$CC?$AAT?$AAo?$AAo?$AA?5?$AAm@ ; `string'
PUBLIC	??_C@_1LM@KONDCONO@?$AAG?$AA?3?$AA?2?$AAM?$AAi?$AAc?$AAr?$AAo?$AAs?$AAo?$AAf?$AAt?$AA?5?$AAV?$AAi@ ; `string'
PUBLIC	??_R1A@?0A@EA@CObject@@8			; CObject::`RTTI Base Class Descriptor at (0,-1,0,64)'
PUBLIC	??_R0?AVCObject@@@8				; CObject `RTTI Type Descriptor'
PUBLIC	??_R3CObject@@8					; CObject::`RTTI Class Hierarchy Descriptor'
PUBLIC	??_R2CObject@@8					; CObject::`RTTI Base Class Array'
PUBLIC	??_R1A@?0A@EA@CDialog@@8			; CDialog::`RTTI Base Class Descriptor at (0,-1,0,64)'
PUBLIC	??_R0?AVCDialog@@@8				; CDialog `RTTI Type Descriptor'
PUBLIC	??_R3CDialog@@8					; CDialog::`RTTI Class Hierarchy Descriptor'
PUBLIC	??_R2CDialog@@8					; CDialog::`RTTI Base Class Array'
PUBLIC	??_R1A@?0A@EA@CWnd@@8				; CWnd::`RTTI Base Class Descriptor at (0,-1,0,64)'
PUBLIC	??_R0?AVCWnd@@@8				; CWnd `RTTI Type Descriptor'
PUBLIC	??_R3CWnd@@8					; CWnd::`RTTI Class Hierarchy Descriptor'
PUBLIC	??_R2CWnd@@8					; CWnd::`RTTI Base Class Array'
PUBLIC	??_R1A@?0A@EA@CCmdTarget@@8			; CCmdTarget::`RTTI Base Class Descriptor at (0,-1,0,64)'
PUBLIC	??_R0?AVCCmdTarget@@@8				; CCmdTarget `RTTI Type Descriptor'
PUBLIC	??_R3CCmdTarget@@8				; CCmdTarget::`RTTI Class Hierarchy Descriptor'
PUBLIC	??_R2CCmdTarget@@8				; CCmdTarget::`RTTI Base Class Array'
PUBLIC	??_7CNewBoxesApp@@6B@				; CNewBoxesApp::`vftable'
PUBLIC	??_7CBoxesCommandLineInfo@@6B@			; CBoxesCommandLineInfo::`vftable'
PUBLIC	?testFile@@3V?$CStringT@DV?$StrTraitMFC_DLL@DV?$ChTraitsCRT@D@ATL@@@@@ATL@@A ; testFile
PUBLIC	?theApp@@3VCNewBoxesApp@@A			; theApp
PUBLIC	??_7CAboutDlg@@6B@				; CAboutDlg::`vftable'
PUBLIC	??_R4CNewBoxesApp@@6B@				; CNewBoxesApp::`RTTI Complete Object Locator'
PUBLIC	??_R0?AVCNewBoxesApp@@@8			; CNewBoxesApp `RTTI Type Descriptor'
PUBLIC	??_R3CNewBoxesApp@@8				; CNewBoxesApp::`RTTI Class Hierarchy Descriptor'
PUBLIC	??_R2CNewBoxesApp@@8				; CNewBoxesApp::`RTTI Base Class Array'
PUBLIC	??_R1A@?0A@EA@CNewBoxesApp@@8			; CNewBoxesApp::`RTTI Base Class Descriptor at (0,-1,0,64)'
PUBLIC	??_R1A@?0A@EA@CWinApp@@8			; CWinApp::`RTTI Base Class Descriptor at (0,-1,0,64)'
PUBLIC	??_R0?AVCWinApp@@@8				; CWinApp `RTTI Type Descriptor'
PUBLIC	??_R3CWinApp@@8					; CWinApp::`RTTI Class Hierarchy Descriptor'
PUBLIC	??_R2CWinApp@@8					; CWinApp::`RTTI Base Class Array'
PUBLIC	??_R1A@?0A@EA@CWinThread@@8			; CWinThread::`RTTI Base Class Descriptor at (0,-1,0,64)'
PUBLIC	??_R0?AVCWinThread@@@8				; CWinThread `RTTI Type Descriptor'
PUBLIC	??_R3CWinThread@@8				; CWinThread::`RTTI Class Hierarchy Descriptor'
PUBLIC	??_R2CWinThread@@8				; CWinThread::`RTTI Base Class Array'
PUBLIC	??_R4CBoxesCommandLineInfo@@6B@			; CBoxesCommandLineInfo::`RTTI Complete Object Locator'
PUBLIC	??_R0?AVCBoxesCommandLineInfo@@@8		; CBoxesCommandLineInfo `RTTI Type Descriptor'
PUBLIC	??_R3CBoxesCommandLineInfo@@8			; CBoxesCommandLineInfo::`RTTI Class Hierarchy Descriptor'
PUBLIC	??_R2CBoxesCommandLineInfo@@8			; CBoxesCommandLineInfo::`RTTI Base Class Array'
PUBLIC	??_R1A@?0A@EA@CBoxesCommandLineInfo@@8		; CBoxesCommandLineInfo::`RTTI Base Class Descriptor at (0,-1,0,64)'
PUBLIC	??_R1A@?0A@EA@CCommandLineInfo@@8		; CCommandLineInfo::`RTTI Base Class Descriptor at (0,-1,0,64)'
PUBLIC	??_R0?AVCCommandLineInfo@@@8			; CCommandLineInfo `RTTI Type Descriptor'
PUBLIC	??_R3CCommandLineInfo@@8			; CCommandLineInfo::`RTTI Class Hierarchy Descriptor'
PUBLIC	??_R2CCommandLineInfo@@8			; CCommandLineInfo::`RTTI Base Class Array'
PUBLIC	??_R4CAboutDlg@@6B@				; CAboutDlg::`RTTI Complete Object Locator'
PUBLIC	??_R0?AVCAboutDlg@@@8				; CAboutDlg `RTTI Type Descriptor'
PUBLIC	??_R3CAboutDlg@@8				; CAboutDlg::`RTTI Class Hierarchy Descriptor'
PUBLIC	??_R2CAboutDlg@@8				; CAboutDlg::`RTTI Base Class Array'
PUBLIC	??_R1A@?0A@EA@CAboutDlg@@8			; CAboutDlg::`RTTI Base Class Descriptor at (0,-1,0,64)'
EXTRN	?__global_delete@@YAXPAXI@Z:PROC		; __global_delete
EXTRN	_atexit:PROC
EXTRN	__imp__wcscpy_s:PROC
EXTRN	__imp__MessageBoxA@16:PROC
EXTRN	__imp____stdio_common_vswprintf_s:PROC
EXTRN	__imp___CrtDbgReportW:PROC
EXTRN	?GetRuntimeClass@CObject@@UBEPAUCRuntimeClass@@XZ:PROC ; CObject::GetRuntimeClass
EXTRN	??3CObject@@SGXPAX@Z:PROC			; CObject::operator delete
EXTRN	??2CObject@@SGPAXIPBDH@Z:PROC			; CObject::operator new
EXTRN	??3CObject@@SGXPAXPBDH@Z:PROC			; CObject::operator delete
EXTRN	?Serialize@CObject@@UAEXAAVCArchive@@@Z:PROC	; CObject::Serialize
EXTRN	?AssertValid@CObject@@UBEXXZ:PROC		; CObject::AssertValid
EXTRN	?Dump@CObject@@UBEXAAVCDumpContext@@@Z:PROC	; CObject::Dump
EXTRN	__imp_??0?$CStringT@DV?$StrTraitMFC_DLL@DV?$ChTraitsCRT@D@ATL@@@@@ATL@@QAE@XZ:PROC
EXTRN	__imp_??1?$CStringT@DV?$StrTraitMFC_DLL@DV?$ChTraitsCRT@D@ATL@@@@@ATL@@QAE@XZ:PROC
EXTRN	__imp_??4?$CStringT@DV?$StrTraitMFC_DLL@DV?$ChTraitsCRT@D@ATL@@@@@ATL@@QAEAAV01@PBD@Z:PROC
EXTRN	?OnCmdMsg@CCmdTarget@@UAEHIHPAXPAUAFX_CMDHANDLERINFO@@@Z:PROC ; CCmdTarget::OnCmdMsg
EXTRN	?OnFinalRelease@CCmdTarget@@UAEXXZ:PROC		; CCmdTarget::OnFinalRelease
EXTRN	?IsInvokeAllowed@CCmdTarget@@UAEHJ@Z:PROC	; CCmdTarget::IsInvokeAllowed
EXTRN	?GetDispatchIID@CCmdTarget@@UAEHPAU_GUID@@@Z:PROC ; CCmdTarget::GetDispatchIID
EXTRN	?GetTypeInfoCount@CCmdTarget@@UAEIXZ:PROC	; CCmdTarget::GetTypeInfoCount
EXTRN	?GetTypeLibCache@CCmdTarget@@UAEPAVCTypeLibCache@@XZ:PROC ; CCmdTarget::GetTypeLibCache
EXTRN	?GetTypeLib@CCmdTarget@@UAEJKPAPAUITypeLib@@@Z:PROC ; CCmdTarget::GetTypeLib
EXTRN	?GetCommandMap@CCmdTarget@@MBEPBUAFX_OLECMDMAP@@XZ:PROC ; CCmdTarget::GetCommandMap
EXTRN	?GetDispatchMap@CCmdTarget@@MBEPBUAFX_DISPMAP@@XZ:PROC ; CCmdTarget::GetDispatchMap
EXTRN	?GetConnectionMap@CCmdTarget@@MBEPBUAFX_CONNECTIONMAP@@XZ:PROC ; CCmdTarget::GetConnectionMap
EXTRN	?GetInterfaceMap@CCmdTarget@@MBEPBUAFX_INTERFACEMAP@@XZ:PROC ; CCmdTarget::GetInterfaceMap
EXTRN	?GetEventSinkMap@CCmdTarget@@MBEPBUAFX_EVENTSINKMAP@@XZ:PROC ; CCmdTarget::GetEventSinkMap
EXTRN	?OnCreateAggregates@CCmdTarget@@UAEHXZ:PROC	; CCmdTarget::OnCreateAggregates
EXTRN	?GetInterfaceHook@CCmdTarget@@UAEPAUIUnknown@@PBX@Z:PROC ; CCmdTarget::GetInterfaceHook
EXTRN	?GetExtraConnectionPoints@CCmdTarget@@MAEHPAVCPtrArray@@@Z:PROC ; CCmdTarget::GetExtraConnectionPoints
EXTRN	?GetConnectionHook@CCmdTarget@@MAEPAUIConnectionPoint@@ABU_GUID@@@Z:PROC ; CCmdTarget::GetConnectionHook
EXTRN	?PreSubclassWindow@CWnd@@UAEXXZ:PROC		; CWnd::PreSubclassWindow
EXTRN	?Create@CWnd@@UAEHPBD0KABUtagRECT@@PAV1@IPAUCCreateContext@@@Z:PROC ; CWnd::Create
EXTRN	?CreateEx@CWnd@@UAEHKPBD0KHHHHPAUHWND__@@PAUHMENU__@@PAX@Z:PROC ; CWnd::CreateEx
EXTRN	?CreateEx@CWnd@@UAEHKPBD0KABUtagRECT@@PAV1@IPAX@Z:PROC ; CWnd::CreateEx
EXTRN	?DestroyWindow@CWnd@@UAEHXZ:PROC		; CWnd::DestroyWindow
EXTRN	?PreCreateWindow@CWnd@@UAEHAAUtagCREATESTRUCTA@@@Z:PROC ; CWnd::PreCreateWindow
EXTRN	?CalcWindowRect@CWnd@@UAEXPAUtagRECT@@I@Z:PROC	; CWnd::CalcWindowRect
EXTRN	?GetMenu@CWnd@@UBEPAVCMenu@@XZ:PROC		; CWnd::GetMenu
EXTRN	?SetMenu@CWnd@@UAEHPAVCMenu@@@Z:PROC		; CWnd::SetMenu
EXTRN	?UpdateWindow@CWnd@@QAEXXZ:PROC			; CWnd::UpdateWindow
EXTRN	?ShowWindow@CWnd@@QAEHH@Z:PROC			; CWnd::ShowWindow
EXTRN	?OnToolHitTest@CWnd@@UBEHVCPoint@@PAUtagTOOLINFOA@@@Z:PROC ; CWnd::OnToolHitTest
EXTRN	?GetScrollBarCtrl@CWnd@@UBEPAVCScrollBar@@H@Z:PROC ; CWnd::GetScrollBarCtrl
EXTRN	?WinHelpA@CWnd@@UAEXKI@Z:PROC			; CWnd::WinHelpA
EXTRN	?HtmlHelpA@CWnd@@UAEXKI@Z:PROC			; CWnd::HtmlHelpA
EXTRN	?WinHelpInternal@CWnd@@UAEXKI@Z:PROC		; CWnd::WinHelpInternal
EXTRN	?ContinueModal@CWnd@@UAEHXZ:PROC		; CWnd::ContinueModal
EXTRN	?EndModalLoop@CWnd@@UAEXH@Z:PROC		; CWnd::EndModalLoop
EXTRN	?OnDrawIconicThumbnailOrLivePreview@CWnd@@UAEXAAVCDC@@VCRect@@VCSize@@HAAH@Z:PROC ; CWnd::OnDrawIconicThumbnailOrLivePreview
EXTRN	?GetInterfaceMap@CWnd@@MBEPBUAFX_INTERFACEMAP@@XZ:PROC ; CWnd::GetInterfaceMap
EXTRN	?EnsureStdObj@CWnd@@UAEJXZ:PROC			; CWnd::EnsureStdObj
EXTRN	?get_accParent@CWnd@@UAEJPAPAUIDispatch@@@Z:PROC ; CWnd::get_accParent
EXTRN	?get_accChildCount@CWnd@@UAEJPAJ@Z:PROC		; CWnd::get_accChildCount
EXTRN	?get_accChild@CWnd@@UAEJUtagVARIANT@@PAPAUIDispatch@@@Z:PROC ; CWnd::get_accChild
EXTRN	?get_accName@CWnd@@UAEJUtagVARIANT@@PAPA_W@Z:PROC ; CWnd::get_accName
EXTRN	?get_accValue@CWnd@@UAEJUtagVARIANT@@PAPA_W@Z:PROC ; CWnd::get_accValue
EXTRN	?get_accDescription@CWnd@@UAEJUtagVARIANT@@PAPA_W@Z:PROC ; CWnd::get_accDescription
EXTRN	?get_accRole@CWnd@@UAEJUtagVARIANT@@PAU2@@Z:PROC ; CWnd::get_accRole
EXTRN	?get_accState@CWnd@@UAEJUtagVARIANT@@PAU2@@Z:PROC ; CWnd::get_accState
EXTRN	?get_accHelp@CWnd@@UAEJUtagVARIANT@@PAPA_W@Z:PROC ; CWnd::get_accHelp
EXTRN	?get_accHelpTopic@CWnd@@UAEJPAPA_WUtagVARIANT@@PAJ@Z:PROC ; CWnd::get_accHelpTopic
EXTRN	?get_accKeyboardShortcut@CWnd@@UAEJUtagVARIANT@@PAPA_W@Z:PROC ; CWnd::get_accKeyboardShortcut
EXTRN	?get_accFocus@CWnd@@UAEJPAUtagVARIANT@@@Z:PROC	; CWnd::get_accFocus
EXTRN	?get_accSelection@CWnd@@UAEJPAUtagVARIANT@@@Z:PROC ; CWnd::get_accSelection
EXTRN	?get_accDefaultAction@CWnd@@UAEJUtagVARIANT@@PAPA_W@Z:PROC ; CWnd::get_accDefaultAction
EXTRN	?accSelect@CWnd@@UAEJJUtagVARIANT@@@Z:PROC	; CWnd::accSelect
EXTRN	?accLocation@CWnd@@UAEJPAJ000UtagVARIANT@@@Z:PROC ; CWnd::accLocation
EXTRN	?accNavigate@CWnd@@UAEJJUtagVARIANT@@PAU2@@Z:PROC ; CWnd::accNavigate
EXTRN	?accHitTest@CWnd@@UAEJJJPAUtagVARIANT@@@Z:PROC	; CWnd::accHitTest
EXTRN	?accDoDefaultAction@CWnd@@UAEJUtagVARIANT@@@Z:PROC ; CWnd::accDoDefaultAction
EXTRN	?put_accName@CWnd@@UAEJUtagVARIANT@@PA_W@Z:PROC	; CWnd::put_accName
EXTRN	?put_accValue@CWnd@@UAEJUtagVARIANT@@PA_W@Z:PROC ; CWnd::put_accValue
EXTRN	?SetProxy@CWnd@@UAEJPAUIAccessibleProxy@@@Z:PROC ; CWnd::SetProxy
EXTRN	?CreateAccessibleProxy@CWnd@@UAEJIJPAJ@Z:PROC	; CWnd::CreateAccessibleProxy
EXTRN	?OnCommand@CWnd@@MAEHIJ@Z:PROC			; CWnd::OnCommand
EXTRN	?OnNotify@CWnd@@MAEHIJPAJ@Z:PROC		; CWnd::OnNotify
EXTRN	?GetSuperWndProcAddr@CWnd@@MAEPAP6GJPAUHWND__@@IIJ@ZXZ:PROC ; CWnd::GetSuperWndProcAddr
EXTRN	?DoDataExchange@CWnd@@MAEXPAVCDataExchange@@@Z:PROC ; CWnd::DoDataExchange
EXTRN	?BeginModalState@CWnd@@UAEXXZ:PROC		; CWnd::BeginModalState
EXTRN	?EndModalState@CWnd@@UAEXXZ:PROC		; CWnd::EndModalState
EXTRN	?OnAmbientProperty@CWnd@@UAEHPAVCOleControlSite@@JPAUtagVARIANT@@@Z:PROC ; CWnd::OnAmbientProperty
EXTRN	?WindowProc@CWnd@@MAEJIIJ@Z:PROC		; CWnd::WindowProc
EXTRN	?OnWndMsg@CWnd@@MAEHIIJPAJ@Z:PROC		; CWnd::OnWndMsg
EXTRN	?DefWindowProcA@CWnd@@MAEJIIJ@Z:PROC		; CWnd::DefWindowProcA
EXTRN	?PostNcDestroy@CWnd@@MAEXXZ:PROC		; CWnd::PostNcDestroy
EXTRN	?OnChildNotify@CWnd@@MAEHIIJPAJ@Z:PROC		; CWnd::OnChildNotify
EXTRN	?OnTouchInputs@CWnd@@MAEHIPAUtagTOUCHINPUT@@@Z:PROC ; CWnd::OnTouchInputs
EXTRN	?OnTouchInput@CWnd@@MAEHVCPoint@@HHPAUtagTOUCHINPUT@@@Z:PROC ; CWnd::OnTouchInput
EXTRN	?GetGestureStatus@CWnd@@MAEKVCPoint@@@Z:PROC	; CWnd::GetGestureStatus
EXTRN	?OnGestureZoom@CWnd@@MAEHVCPoint@@J@Z:PROC	; CWnd::OnGestureZoom
EXTRN	?OnGesturePan@CWnd@@MAEHVCPoint@@0@Z:PROC	; CWnd::OnGesturePan
EXTRN	?OnGestureRotate@CWnd@@MAEHVCPoint@@N@Z:PROC	; CWnd::OnGestureRotate
EXTRN	?OnGestureTwoFingerTap@CWnd@@MAEHVCPoint@@@Z:PROC ; CWnd::OnGestureTwoFingerTap
EXTRN	?OnGesturePressAndTap@CWnd@@MAEHVCPoint@@J@Z:PROC ; CWnd::OnGesturePressAndTap
EXTRN	?ResizeDynamicLayout@CWnd@@MAEXXZ:PROC		; CWnd::ResizeDynamicLayout
EXTRN	?IsFrameWnd@CWnd@@UBEHXZ:PROC			; CWnd::IsFrameWnd
EXTRN	?OnFinalRelease@CWnd@@UAEXXZ:PROC		; CWnd::OnFinalRelease
EXTRN	?CreateControlContainer@CWnd@@MAEHPAPAVCOleControlContainer@@@Z:PROC ; CWnd::CreateControlContainer
EXTRN	?CreateControlSite@CWnd@@MAEHPAVCOleControlContainer@@PAPAVCOleControlSite@@IABU_GUID@@@Z:PROC ; CWnd::CreateControlSite
EXTRN	?GetRuntimeClass@CDialog@@UBEPAUCRuntimeClass@@XZ:PROC ; CDialog::GetRuntimeClass
EXTRN	?Create@CDialog@@UAEHPBDPAVCWnd@@@Z:PROC	; CDialog::Create
EXTRN	?Create@CDialog@@UAEHIPAVCWnd@@@Z:PROC		; CDialog::Create
EXTRN	?CreateIndirect@CDialog@@UAEHPBUDLGTEMPLATE@@PAVCWnd@@PAX@Z:PROC ; CDialog::CreateIndirect
EXTRN	?CreateIndirect@CDialog@@UAEHPAXPAVCWnd@@@Z:PROC ; CDialog::CreateIndirect
EXTRN	??0CDialog@@QAE@IPAVCWnd@@@Z:PROC		; CDialog::CDialog
EXTRN	?DoModal@CDialog@@UAEHXZ:PROC			; CDialog::DoModal
EXTRN	?OnInitDialog@CDialog@@UAEHXZ:PROC		; CDialog::OnInitDialog
EXTRN	?OnSetFont@CDialog@@UAEXPAVCFont@@@Z:PROC	; CDialog::OnSetFont
EXTRN	?OnOK@CDialog@@MAEXXZ:PROC			; CDialog::OnOK
EXTRN	?OnCancel@CDialog@@MAEXXZ:PROC			; CDialog::OnCancel
EXTRN	??1CDialog@@UAE@XZ:PROC				; CDialog::~CDialog
EXTRN	?AssertValid@CDialog@@UBEXXZ:PROC		; CDialog::AssertValid
EXTRN	?Dump@CDialog@@UBEXAAVCDumpContext@@@Z:PROC	; CDialog::Dump
EXTRN	?PreTranslateMessage@CDialog@@UAEHPAUtagMSG@@@Z:PROC ; CDialog::PreTranslateMessage
EXTRN	?OnCmdMsg@CDialog@@UAEHIHPAXPAUAFX_CMDHANDLERINFO@@@Z:PROC ; CDialog::OnCmdMsg
EXTRN	?CheckAutoCenter@CDialog@@UAEHXZ:PROC		; CDialog::CheckAutoCenter
EXTRN	?SetOccDialogInfo@CDialog@@MAEHPAU_AFX_OCC_DIALOG_INFO@@@Z:PROC ; CDialog::SetOccDialogInfo
EXTRN	?GetOccDialogInfo@CDialog@@MAEPAU_AFX_OCC_DIALOG_INFO@@XZ:PROC ; CDialog::GetOccDialogInfo
EXTRN	?PreInitDialog@CDialog@@MAEXXZ:PROC		; CDialog::PreInitDialog
EXTRN	?GetThisMessageMap@CDialog@@KGPBUAFX_MSGMAP@@XZ:PROC ; CDialog::GetThisMessageMap
EXTRN	?PreTranslateMessage@CWinThread@@UAEHPAUtagMSG@@@Z:PROC ; CWinThread::PreTranslateMessage
EXTRN	?PumpMessage@CWinThread@@UAEHXZ:PROC		; CWinThread::PumpMessage
EXTRN	?IsIdleMessage@CWinThread@@UAEHPAUtagMSG@@@Z:PROC ; CWinThread::IsIdleMessage
EXTRN	?ProcessMessageFilter@CWinThread@@UAEHHPAUtagMSG@@@Z:PROC ; CWinThread::ProcessMessageFilter
EXTRN	?GetMainWnd@CWinThread@@UAEPAVCWnd@@XZ:PROC	; CWinThread::GetMainWnd
EXTRN	?Delete@CWinThread@@UAEXXZ:PROC			; CWinThread::Delete
EXTRN	??0CCommandLineInfo@@QAE@XZ:PROC		; CCommandLineInfo::CCommandLineInfo
EXTRN	??1CCommandLineInfo@@UAE@XZ:PROC		; CCommandLineInfo::~CCommandLineInfo
EXTRN	?GetRuntimeClass@CWinApp@@UBEPAUCRuntimeClass@@XZ:PROC ; CWinApp::GetRuntimeClass
EXTRN	??0CWinApp@@QAE@PBD@Z:PROC			; CWinApp::CWinApp
EXTRN	?LoadStdProfileSettings@CWinApp@@IAEXI@Z:PROC	; CWinApp::LoadStdProfileSettings
EXTRN	?SetRegistryKey@CWinApp@@IAEXPBD@Z:PROC		; CWinApp::SetRegistryKey
EXTRN	?Enable3dControls@CWinApp@@IAEHXZ:PROC		; CWinApp::Enable3dControls
EXTRN	?GetProfileIntA@CWinApp@@UAEIPBD0H@Z:PROC	; CWinApp::GetProfileIntA
EXTRN	?WriteProfileInt@CWinApp@@UAEHPBD0H@Z:PROC	; CWinApp::WriteProfileInt
EXTRN	?GetProfileStringA@CWinApp@@UAE?AV?$CStringT@DV?$StrTraitMFC_DLL@DV?$ChTraitsCRT@D@ATL@@@@@ATL@@PBD00@Z:PROC ; CWinApp::GetProfileStringA
EXTRN	?WriteProfileStringA@CWinApp@@UAEHPBD00@Z:PROC	; CWinApp::WriteProfileStringA
EXTRN	?GetProfileBinary@CWinApp@@UAEHPBD0PAPAEPAI@Z:PROC ; CWinApp::GetProfileBinary
EXTRN	?WriteProfileBinary@CWinApp@@UAEHPBD0PAEI@Z:PROC ; CWinApp::WriteProfileBinary
EXTRN	?InitLibId@CWinApp@@UAEXXZ:PROC			; CWinApp::InitLibId
EXTRN	?Register@CWinApp@@UAEHXZ:PROC			; CWinApp::Register
EXTRN	?Unregister@CWinApp@@UAEHXZ:PROC		; CWinApp::Unregister
EXTRN	?AddDocTemplate@CWinApp@@QAEXPAVCDocTemplate@@@Z:PROC ; CWinApp::AddDocTemplate
EXTRN	?OpenDocumentFile@CWinApp@@UAEPAVCDocument@@PBD@Z:PROC ; CWinApp::OpenDocumentFile
EXTRN	?OpenDocumentFile@CWinApp@@UAEPAVCDocument@@PBDH@Z:PROC ; CWinApp::OpenDocumentFile
EXTRN	?AddToRecentFileList@CWinApp@@UAEXPBD@Z:PROC	; CWinApp::AddToRecentFileList
EXTRN	?ParseCommandLine@CWinApp@@QAEXAAVCCommandLineInfo@@@Z:PROC ; CWinApp::ParseCommandLine
EXTRN	?ProcessShellCommand@CWinApp@@QAEHAAVCCommandLineInfo@@@Z:PROC ; CWinApp::ProcessShellCommand
EXTRN	?InitApplication@CWinApp@@UAEHXZ:PROC		; CWinApp::InitApplication
EXTRN	?SaveAllModified@CWinApp@@UAEHXZ:PROC		; CWinApp::SaveAllModified
EXTRN	?DoMessageBox@CWinApp@@UAEHPBDII@Z:PROC		; CWinApp::DoMessageBox
EXTRN	?DoWaitCursor@CWinApp@@UAEXH@Z:PROC		; CWinApp::DoWaitCursor
EXTRN	?OnDDECommand@CWinApp@@UAEHPAD@Z:PROC		; CWinApp::OnDDECommand
EXTRN	?WinHelpA@CWinApp@@UAEXKI@Z:PROC		; CWinApp::WinHelpA
EXTRN	?HtmlHelpA@CWinApp@@UAEXKI@Z:PROC		; CWinApp::HtmlHelpA
EXTRN	?WinHelpInternal@CWinApp@@UAEXKI@Z:PROC		; CWinApp::WinHelpInternal
EXTRN	?RegisterWithRestartManager@CWinApp@@UAEJHABV?$CStringT@DV?$StrTraitMFC_DLL@DV?$ChTraitsCRT@D@ATL@@@@@ATL@@@Z:PROC ; CWinApp::RegisterWithRestartManager
EXTRN	?RegisterWithRestartManager@CWinApp@@UAEJPB_WKP6GKPAX@Z1KK@Z:PROC ; CWinApp::RegisterWithRestartManager
EXTRN	?ApplicationRecoveryCallback@CWinApp@@UAEKPAX@Z:PROC ; CWinApp::ApplicationRecoveryCallback
EXTRN	?OnFileNew@CWinApp@@IAEXXZ:PROC			; CWinApp::OnFileNew
EXTRN	?OnFileOpen@CWinApp@@IAEXXZ:PROC		; CWinApp::OnFileOpen
EXTRN	?OnFilePrintSetup@CWinApp@@IAEXXZ:PROC		; CWinApp::OnFilePrintSetup
EXTRN	?GetDataRecoveryHandler@CWinApp@@UAEPAVCDataRecoveryHandler@@XZ:PROC ; CWinApp::GetDataRecoveryHandler
EXTRN	?IsTaskbarInteractionEnabled@CWinApp@@UAEHXZ:PROC ; CWinApp::IsTaskbarInteractionEnabled
EXTRN	?ExitInstance@CWinApp@@UAEHXZ:PROC		; CWinApp::ExitInstance
EXTRN	?RestartInstance@CWinApp@@UAEHXZ:PROC		; CWinApp::RestartInstance
EXTRN	?Run@CWinApp@@UAEHXZ:PROC			; CWinApp::Run
EXTRN	?OnIdle@CWinApp@@UAEHJ@Z:PROC			; CWinApp::OnIdle
EXTRN	?ProcessWndProcException@CWinApp@@UAEJPAVCException@@PBUtagMSG@@@Z:PROC ; CWinApp::ProcessWndProcException
EXTRN	?LoadAppLangResourceDLL@CWinApp@@UAEPAUHINSTANCE__@@XZ:PROC ; CWinApp::LoadAppLangResourceDLL
EXTRN	??1CWinApp@@UAE@XZ:PROC				; CWinApp::~CWinApp
EXTRN	?AssertValid@CWinApp@@UBEXXZ:PROC		; CWinApp::AssertValid
EXTRN	?Dump@CWinApp@@UBEXAAVCDumpContext@@@Z:PROC	; CWinApp::Dump
EXTRN	?GetThisMessageMap@CWinApp@@KGPBUAFX_MSGMAP@@XZ:PROC ; CWinApp::GetThisMessageMap
EXTRN	?LoadSysPolicies@CWinApp@@UAEHXZ:PROC		; CWinApp::LoadSysPolicies
EXTRN	??0CSingleDocTemplate@@QAE@IPAUCRuntimeClass@@00@Z:PROC ; CSingleDocTemplate::CSingleDocTemplate
EXTRN	??_ECNewBoxesApp@@UAEPAXI@Z:PROC		; CNewBoxesApp::`vector deleting destructor'
EXTRN	??_ECBoxesCommandLineInfo@@UAEPAXI@Z:PROC	; CBoxesCommandLineInfo::`vector deleting destructor'
EXTRN	?GetThisClass@CMainFrame@@SGPAUCRuntimeClass@@XZ:PROC ; CMainFrame::GetThisClass
EXTRN	?GetThisClass@CNewBoxesDoc@@SGPAUCRuntimeClass@@XZ:PROC ; CNewBoxesDoc::GetThisClass
EXTRN	?GetThisClass@CNewBoxesView@@SGPAUCRuntimeClass@@XZ:PROC ; CNewBoxesView::GetThisClass
EXTRN	??_ECAboutDlg@@UAEPAXI@Z:PROC			; CAboutDlg::`vector deleting destructor'
EXTRN	@_RTC_CheckStackVars@8:PROC
EXTRN	@__security_check_cookie@4:PROC
EXTRN	__RTC_CheckEsp:PROC
EXTRN	__RTC_InitBase:PROC
EXTRN	__RTC_Shutdown:PROC
EXTRN	___CxxFrameHandler3:PROC
EXTRN	_memset:PROC
EXTRN	??_7type_info@@6B@:QWORD			; type_info::`vftable'
EXTRN	___security_cookie:DWORD
;	COMDAT ?_OptionsStorage@?1??__local_stdio_printf_options@@9@4_KA
_BSS	SEGMENT
?_OptionsStorage@?1??__local_stdio_printf_options@@9@4_KA DQ 01H DUP (?) ; `__local_stdio_printf_options'::`2'::_OptionsStorage
_BSS	ENDS
;	COMDAT ?atlTraceException@ATL@@3V?$CTraceCategoryEx@$0CAAA@$0A@@1@A
_BSS	SEGMENT
?atlTraceException@ATL@@3V?$CTraceCategoryEx@$0CAAA@$0A@@1@A DD 01H DUP (?) ; ATL::atlTraceException
_BSS	ENDS
;	COMDAT ?m_nLastCategory@CTrace@ATL@@1IA
_BSS	SEGMENT
?m_nLastCategory@CTrace@ATL@@1IA DD 01H DUP (?)		; ATL::CTrace::m_nLastCategory
_BSS	ENDS
;	COMDAT ?m_nMap@CTrace@ATL@@1PAUCategoryMap@12@A
_BSS	SEGMENT
?m_nMap@CTrace@ATL@@1PAUCategoryMap@12@A DB 02080H DUP (?) ; ATL::CTrace::m_nMap
_BSS	ENDS
_BSS	SEGMENT
	ALIGN	4

?testFile@@3V?$CStringT@DV?$StrTraitMFC_DLL@DV?$ChTraitsCRT@D@ATL@@@@@ATL@@A DD 01H DUP (?) ; testFile
?theApp@@3VCNewBoxesApp@@A DB 0ccH DUP (?)		; theApp
_BSS	ENDS
;	COMDAT CRT$XCU
CRT$XCU	SEGMENT
?atlTraceException$initializer$@ATL@@3P6AXXZA DD FLAT:??__EatlTraceException@ATL@@YAXXZ ; ATL::atlTraceException$initializer$
CRT$XCU	ENDS
;	COMDAT rtc$TMZ
rtc$TMZ	SEGMENT
__RTC_Shutdown.rtc$TMZ DD FLAT:__RTC_Shutdown
rtc$TMZ	ENDS
;	COMDAT rtc$IMZ
rtc$IMZ	SEGMENT
__RTC_InitBase.rtc$IMZ DD FLAT:__RTC_InitBase
rtc$IMZ	ENDS
;	COMDAT ??_R1A@?0A@EA@CAboutDlg@@8
rdata$r	SEGMENT
??_R1A@?0A@EA@CAboutDlg@@8 DD FLAT:??_R0?AVCAboutDlg@@@8 ; CAboutDlg::`RTTI Base Class Descriptor at (0,-1,0,64)'
	DD	04H
	DD	00H
	DD	0ffffffffH
	DD	00H
	DD	040H
	DD	FLAT:??_R3CAboutDlg@@8
rdata$r	ENDS
;	COMDAT ??_R2CAboutDlg@@8
rdata$r	SEGMENT
??_R2CAboutDlg@@8 DD FLAT:??_R1A@?0A@EA@CAboutDlg@@8	; CAboutDlg::`RTTI Base Class Array'
	DD	FLAT:??_R1A@?0A@EA@CDialog@@8
	DD	FLAT:??_R1A@?0A@EA@CWnd@@8
	DD	FLAT:??_R1A@?0A@EA@CCmdTarget@@8
	DD	FLAT:??_R1A@?0A@EA@CObject@@8
rdata$r	ENDS
;	COMDAT ??_R3CAboutDlg@@8
rdata$r	SEGMENT
??_R3CAboutDlg@@8 DD 00H				; CAboutDlg::`RTTI Class Hierarchy Descriptor'
	DD	00H
	DD	05H
	DD	FLAT:??_R2CAboutDlg@@8
rdata$r	ENDS
;	COMDAT ??_R0?AVCAboutDlg@@@8
data$rs	SEGMENT
??_R0?AVCAboutDlg@@@8 DD FLAT:??_7type_info@@6B@	; CAboutDlg `RTTI Type Descriptor'
	DD	00H
	DB	'.?AVCAboutDlg@@', 00H
data$rs	ENDS
;	COMDAT ??_R4CAboutDlg@@6B@
rdata$r	SEGMENT
??_R4CAboutDlg@@6B@ DD 00H				; CAboutDlg::`RTTI Complete Object Locator'
	DD	00H
	DD	00H
	DD	FLAT:??_R0?AVCAboutDlg@@@8
	DD	FLAT:??_R3CAboutDlg@@8
rdata$r	ENDS
;	COMDAT ??_R2CCommandLineInfo@@8
rdata$r	SEGMENT
??_R2CCommandLineInfo@@8 DD FLAT:??_R1A@?0A@EA@CCommandLineInfo@@8 ; CCommandLineInfo::`RTTI Base Class Array'
	DD	FLAT:??_R1A@?0A@EA@CObject@@8
rdata$r	ENDS
;	COMDAT ??_R3CCommandLineInfo@@8
rdata$r	SEGMENT
??_R3CCommandLineInfo@@8 DD 00H				; CCommandLineInfo::`RTTI Class Hierarchy Descriptor'
	DD	00H
	DD	02H
	DD	FLAT:??_R2CCommandLineInfo@@8
rdata$r	ENDS
;	COMDAT ??_R0?AVCCommandLineInfo@@@8
data$rs	SEGMENT
??_R0?AVCCommandLineInfo@@@8 DD FLAT:??_7type_info@@6B@	; CCommandLineInfo `RTTI Type Descriptor'
	DD	00H
	DB	'.?AVCCommandLineInfo@@', 00H
data$rs	ENDS
;	COMDAT ??_R1A@?0A@EA@CCommandLineInfo@@8
rdata$r	SEGMENT
??_R1A@?0A@EA@CCommandLineInfo@@8 DD FLAT:??_R0?AVCCommandLineInfo@@@8 ; CCommandLineInfo::`RTTI Base Class Descriptor at (0,-1,0,64)'
	DD	01H
	DD	00H
	DD	0ffffffffH
	DD	00H
	DD	040H
	DD	FLAT:??_R3CCommandLineInfo@@8
rdata$r	ENDS
;	COMDAT ??_R1A@?0A@EA@CBoxesCommandLineInfo@@8
rdata$r	SEGMENT
??_R1A@?0A@EA@CBoxesCommandLineInfo@@8 DD FLAT:??_R0?AVCBoxesCommandLineInfo@@@8 ; CBoxesCommandLineInfo::`RTTI Base Class Descriptor at (0,-1,0,64)'
	DD	02H
	DD	00H
	DD	0ffffffffH
	DD	00H
	DD	040H
	DD	FLAT:??_R3CBoxesCommandLineInfo@@8
rdata$r	ENDS
;	COMDAT ??_R2CBoxesCommandLineInfo@@8
rdata$r	SEGMENT
??_R2CBoxesCommandLineInfo@@8 DD FLAT:??_R1A@?0A@EA@CBoxesCommandLineInfo@@8 ; CBoxesCommandLineInfo::`RTTI Base Class Array'
	DD	FLAT:??_R1A@?0A@EA@CCommandLineInfo@@8
	DD	FLAT:??_R1A@?0A@EA@CObject@@8
rdata$r	ENDS
;	COMDAT ??_R3CBoxesCommandLineInfo@@8
rdata$r	SEGMENT
??_R3CBoxesCommandLineInfo@@8 DD 00H			; CBoxesCommandLineInfo::`RTTI Class Hierarchy Descriptor'
	DD	00H
	DD	03H
	DD	FLAT:??_R2CBoxesCommandLineInfo@@8
rdata$r	ENDS
;	COMDAT ??_R0?AVCBoxesCommandLineInfo@@@8
data$rs	SEGMENT
??_R0?AVCBoxesCommandLineInfo@@@8 DD FLAT:??_7type_info@@6B@ ; CBoxesCommandLineInfo `RTTI Type Descriptor'
	DD	00H
	DB	'.?AVCBoxesCommandLineInfo@@', 00H
data$rs	ENDS
;	COMDAT ??_R4CBoxesCommandLineInfo@@6B@
rdata$r	SEGMENT
??_R4CBoxesCommandLineInfo@@6B@ DD 00H			; CBoxesCommandLineInfo::`RTTI Complete Object Locator'
	DD	00H
	DD	00H
	DD	FLAT:??_R0?AVCBoxesCommandLineInfo@@@8
	DD	FLAT:??_R3CBoxesCommandLineInfo@@8
rdata$r	ENDS
;	COMDAT ??_R2CWinThread@@8
rdata$r	SEGMENT
??_R2CWinThread@@8 DD FLAT:??_R1A@?0A@EA@CWinThread@@8	; CWinThread::`RTTI Base Class Array'
	DD	FLAT:??_R1A@?0A@EA@CCmdTarget@@8
	DD	FLAT:??_R1A@?0A@EA@CObject@@8
rdata$r	ENDS
;	COMDAT ??_R3CWinThread@@8
rdata$r	SEGMENT
??_R3CWinThread@@8 DD 00H				; CWinThread::`RTTI Class Hierarchy Descriptor'
	DD	00H
	DD	03H
	DD	FLAT:??_R2CWinThread@@8
rdata$r	ENDS
;	COMDAT ??_R0?AVCWinThread@@@8
data$rs	SEGMENT
??_R0?AVCWinThread@@@8 DD FLAT:??_7type_info@@6B@	; CWinThread `RTTI Type Descriptor'
	DD	00H
	DB	'.?AVCWinThread@@', 00H
data$rs	ENDS
;	COMDAT ??_R1A@?0A@EA@CWinThread@@8
rdata$r	SEGMENT
??_R1A@?0A@EA@CWinThread@@8 DD FLAT:??_R0?AVCWinThread@@@8 ; CWinThread::`RTTI Base Class Descriptor at (0,-1,0,64)'
	DD	02H
	DD	00H
	DD	0ffffffffH
	DD	00H
	DD	040H
	DD	FLAT:??_R3CWinThread@@8
rdata$r	ENDS
;	COMDAT ??_R2CWinApp@@8
rdata$r	SEGMENT
??_R2CWinApp@@8 DD FLAT:??_R1A@?0A@EA@CWinApp@@8	; CWinApp::`RTTI Base Class Array'
	DD	FLAT:??_R1A@?0A@EA@CWinThread@@8
	DD	FLAT:??_R1A@?0A@EA@CCmdTarget@@8
	DD	FLAT:??_R1A@?0A@EA@CObject@@8
rdata$r	ENDS
;	COMDAT ??_R3CWinApp@@8
rdata$r	SEGMENT
??_R3CWinApp@@8 DD 00H					; CWinApp::`RTTI Class Hierarchy Descriptor'
	DD	00H
	DD	04H
	DD	FLAT:??_R2CWinApp@@8
rdata$r	ENDS
;	COMDAT ??_R0?AVCWinApp@@@8
data$rs	SEGMENT
??_R0?AVCWinApp@@@8 DD FLAT:??_7type_info@@6B@		; CWinApp `RTTI Type Descriptor'
	DD	00H
	DB	'.?AVCWinApp@@', 00H
data$rs	ENDS
;	COMDAT ??_R1A@?0A@EA@CWinApp@@8
rdata$r	SEGMENT
??_R1A@?0A@EA@CWinApp@@8 DD FLAT:??_R0?AVCWinApp@@@8	; CWinApp::`RTTI Base Class Descriptor at (0,-1,0,64)'
	DD	03H
	DD	00H
	DD	0ffffffffH
	DD	00H
	DD	040H
	DD	FLAT:??_R3CWinApp@@8
rdata$r	ENDS
;	COMDAT ??_R1A@?0A@EA@CNewBoxesApp@@8
rdata$r	SEGMENT
??_R1A@?0A@EA@CNewBoxesApp@@8 DD FLAT:??_R0?AVCNewBoxesApp@@@8 ; CNewBoxesApp::`RTTI Base Class Descriptor at (0,-1,0,64)'
	DD	04H
	DD	00H
	DD	0ffffffffH
	DD	00H
	DD	040H
	DD	FLAT:??_R3CNewBoxesApp@@8
rdata$r	ENDS
;	COMDAT ??_R2CNewBoxesApp@@8
rdata$r	SEGMENT
??_R2CNewBoxesApp@@8 DD FLAT:??_R1A@?0A@EA@CNewBoxesApp@@8 ; CNewBoxesApp::`RTTI Base Class Array'
	DD	FLAT:??_R1A@?0A@EA@CWinApp@@8
	DD	FLAT:??_R1A@?0A@EA@CWinThread@@8
	DD	FLAT:??_R1A@?0A@EA@CCmdTarget@@8
	DD	FLAT:??_R1A@?0A@EA@CObject@@8
rdata$r	ENDS
;	COMDAT ??_R3CNewBoxesApp@@8
rdata$r	SEGMENT
??_R3CNewBoxesApp@@8 DD 00H				; CNewBoxesApp::`RTTI Class Hierarchy Descriptor'
	DD	00H
	DD	05H
	DD	FLAT:??_R2CNewBoxesApp@@8
rdata$r	ENDS
;	COMDAT ??_R0?AVCNewBoxesApp@@@8
data$rs	SEGMENT
??_R0?AVCNewBoxesApp@@@8 DD FLAT:??_7type_info@@6B@	; CNewBoxesApp `RTTI Type Descriptor'
	DD	00H
	DB	'.?AVCNewBoxesApp@@', 00H
data$rs	ENDS
;	COMDAT ??_R4CNewBoxesApp@@6B@
rdata$r	SEGMENT
??_R4CNewBoxesApp@@6B@ DD 00H				; CNewBoxesApp::`RTTI Complete Object Locator'
	DD	00H
	DD	00H
	DD	FLAT:??_R0?AVCNewBoxesApp@@@8
	DD	FLAT:??_R3CNewBoxesApp@@8
rdata$r	ENDS
;	COMDAT ?messageMap@?1??GetThisMessageMap@CAboutDlg@@KGPBUAFX_MSGMAP@@XZ@4U3@B
CONST	SEGMENT
?messageMap@?1??GetThisMessageMap@CAboutDlg@@KGPBUAFX_MSGMAP@@XZ@4U3@B DD FLAT:?GetThisMessageMap@CDialog@@KGPBUAFX_MSGMAP@@XZ ; `CAboutDlg::GetThisMessageMap'::`2'::messageMap
	DD	FLAT:?_messageEntries@?1??GetThisMessageMap@CAboutDlg@@KGPBUAFX_MSGMAP@@XZ@4QBUAFX_MSGMAP_ENTRY@@B
CONST	ENDS
;	COMDAT ?_messageEntries@?1??GetThisMessageMap@CAboutDlg@@KGPBUAFX_MSGMAP@@XZ@4QBUAFX_MSGMAP_ENTRY@@B
CONST	SEGMENT
?_messageEntries@?1??GetThisMessageMap@CAboutDlg@@KGPBUAFX_MSGMAP@@XZ@4QBUAFX_MSGMAP_ENTRY@@B DD 00H ; `CAboutDlg::GetThisMessageMap'::`2'::_messageEntries
	DD	00H
	DD	00H
	DD	00H
	DD	00H
	DD	00H
CONST	ENDS
;	COMDAT ??_7CAboutDlg@@6B@
CONST	SEGMENT
??_7CAboutDlg@@6B@ DD FLAT:??_R4CAboutDlg@@6B@		; CAboutDlg::`vftable'
	DD	FLAT:?GetRuntimeClass@CDialog@@UBEPAUCRuntimeClass@@XZ
	DD	FLAT:??_ECAboutDlg@@UAEPAXI@Z
	DD	FLAT:?Serialize@CObject@@UAEXAAVCArchive@@@Z
	DD	FLAT:?AssertValid@CDialog@@UBEXXZ
	DD	FLAT:?Dump@CDialog@@UBEXAAVCDumpContext@@@Z
	DD	FLAT:?OnCmdMsg@CDialog@@UAEHIHPAXPAUAFX_CMDHANDLERINFO@@@Z
	DD	FLAT:?OnFinalRelease@CWnd@@UAEXXZ
	DD	FLAT:?IsInvokeAllowed@CCmdTarget@@UAEHJ@Z
	DD	FLAT:?GetDispatchIID@CCmdTarget@@UAEHPAU_GUID@@@Z
	DD	FLAT:?GetTypeInfoCount@CCmdTarget@@UAEIXZ
	DD	FLAT:?GetTypeLibCache@CCmdTarget@@UAEPAVCTypeLibCache@@XZ
	DD	FLAT:?GetTypeLib@CCmdTarget@@UAEJKPAPAUITypeLib@@@Z
	DD	FLAT:?GetMessageMap@CAboutDlg@@MBEPBUAFX_MSGMAP@@XZ
	DD	FLAT:?GetCommandMap@CCmdTarget@@MBEPBUAFX_OLECMDMAP@@XZ
	DD	FLAT:?GetDispatchMap@CCmdTarget@@MBEPBUAFX_DISPMAP@@XZ
	DD	FLAT:?GetConnectionMap@CCmdTarget@@MBEPBUAFX_CONNECTIONMAP@@XZ
	DD	FLAT:?GetInterfaceMap@CWnd@@MBEPBUAFX_INTERFACEMAP@@XZ
	DD	FLAT:?GetEventSinkMap@CCmdTarget@@MBEPBUAFX_EVENTSINKMAP@@XZ
	DD	FLAT:?OnCreateAggregates@CCmdTarget@@UAEHXZ
	DD	FLAT:?GetInterfaceHook@CCmdTarget@@UAEPAUIUnknown@@PBX@Z
	DD	FLAT:?GetExtraConnectionPoints@CCmdTarget@@MAEHPAVCPtrArray@@@Z
	DD	FLAT:?GetConnectionHook@CCmdTarget@@MAEPAUIConnectionPoint@@ABU_GUID@@@Z
	DD	FLAT:?PreSubclassWindow@CWnd@@UAEXXZ
	DD	FLAT:?Create@CWnd@@UAEHPBD0KABUtagRECT@@PAV1@IPAUCCreateContext@@@Z
	DD	FLAT:?CreateEx@CWnd@@UAEHKPBD0KABUtagRECT@@PAV1@IPAX@Z
	DD	FLAT:?CreateEx@CWnd@@UAEHKPBD0KHHHHPAUHWND__@@PAUHMENU__@@PAX@Z
	DD	FLAT:?DestroyWindow@CWnd@@UAEHXZ
	DD	FLAT:?PreCreateWindow@CWnd@@UAEHAAUtagCREATESTRUCTA@@@Z
	DD	FLAT:?CalcWindowRect@CWnd@@UAEXPAUtagRECT@@I@Z
	DD	FLAT:?GetMenu@CWnd@@UBEPAVCMenu@@XZ
	DD	FLAT:?SetMenu@CWnd@@UAEHPAVCMenu@@@Z
	DD	FLAT:?OnToolHitTest@CWnd@@UBEHVCPoint@@PAUtagTOOLINFOA@@@Z
	DD	FLAT:?GetScrollBarCtrl@CWnd@@UBEPAVCScrollBar@@H@Z
	DD	FLAT:?WinHelpA@CWnd@@UAEXKI@Z
	DD	FLAT:?HtmlHelpA@CWnd@@UAEXKI@Z
	DD	FLAT:?WinHelpInternal@CWnd@@UAEXKI@Z
	DD	FLAT:?ContinueModal@CWnd@@UAEHXZ
	DD	FLAT:?EndModalLoop@CWnd@@UAEXH@Z
	DD	FLAT:?OnDrawIconicThumbnailOrLivePreview@CWnd@@UAEXAAVCDC@@VCRect@@VCSize@@HAAH@Z
	DD	FLAT:?EnsureStdObj@CWnd@@UAEJXZ
	DD	FLAT:?get_accParent@CWnd@@UAEJPAPAUIDispatch@@@Z
	DD	FLAT:?get_accChildCount@CWnd@@UAEJPAJ@Z
	DD	FLAT:?get_accChild@CWnd@@UAEJUtagVARIANT@@PAPAUIDispatch@@@Z
	DD	FLAT:?get_accName@CWnd@@UAEJUtagVARIANT@@PAPA_W@Z
	DD	FLAT:?get_accValue@CWnd@@UAEJUtagVARIANT@@PAPA_W@Z
	DD	FLAT:?get_accDescription@CWnd@@UAEJUtagVARIANT@@PAPA_W@Z
	DD	FLAT:?get_accRole@CWnd@@UAEJUtagVARIANT@@PAU2@@Z
	DD	FLAT:?get_accState@CWnd@@UAEJUtagVARIANT@@PAU2@@Z
	DD	FLAT:?get_accHelp@CWnd@@UAEJUtagVARIANT@@PAPA_W@Z
	DD	FLAT:?get_accHelpTopic@CWnd@@UAEJPAPA_WUtagVARIANT@@PAJ@Z
	DD	FLAT:?get_accKeyboardShortcut@CWnd@@UAEJUtagVARIANT@@PAPA_W@Z
	DD	FLAT:?get_accFocus@CWnd@@UAEJPAUtagVARIANT@@@Z
	DD	FLAT:?get_accSelection@CWnd@@UAEJPAUtagVARIANT@@@Z
	DD	FLAT:?get_accDefaultAction@CWnd@@UAEJUtagVARIANT@@PAPA_W@Z
	DD	FLAT:?accSelect@CWnd@@UAEJJUtagVARIANT@@@Z
	DD	FLAT:?accLocation@CWnd@@UAEJPAJ000UtagVARIANT@@@Z
	DD	FLAT:?accNavigate@CWnd@@UAEJJUtagVARIANT@@PAU2@@Z
	DD	FLAT:?accHitTest@CWnd@@UAEJJJPAUtagVARIANT@@@Z
	DD	FLAT:?accDoDefaultAction@CWnd@@UAEJUtagVARIANT@@@Z
	DD	FLAT:?put_accName@CWnd@@UAEJUtagVARIANT@@PA_W@Z
	DD	FLAT:?put_accValue@CWnd@@UAEJUtagVARIANT@@PA_W@Z
	DD	FLAT:?SetProxy@CWnd@@UAEJPAUIAccessibleProxy@@@Z
	DD	FLAT:?CreateAccessibleProxy@CWnd@@UAEJIJPAJ@Z
	DD	FLAT:?OnCommand@CWnd@@MAEHIJ@Z
	DD	FLAT:?OnNotify@CWnd@@MAEHIJPAJ@Z
	DD	FLAT:?GetSuperWndProcAddr@CWnd@@MAEPAP6GJPAUHWND__@@IIJ@ZXZ
	DD	FLAT:?DoDataExchange@CAboutDlg@@MAEXPAVCDataExchange@@@Z
	DD	FLAT:?BeginModalState@CWnd@@UAEXXZ
	DD	FLAT:?EndModalState@CWnd@@UAEXXZ
	DD	FLAT:?PreTranslateMessage@CDialog@@UAEHPAUtagMSG@@@Z
	DD	FLAT:?OnAmbientProperty@CWnd@@UAEHPAVCOleControlSite@@JPAUtagVARIANT@@@Z
	DD	FLAT:?WindowProc@CWnd@@MAEJIIJ@Z
	DD	FLAT:?OnWndMsg@CWnd@@MAEHIIJPAJ@Z
	DD	FLAT:?DefWindowProcA@CWnd@@MAEJIIJ@Z
	DD	FLAT:?PostNcDestroy@CWnd@@MAEXXZ
	DD	FLAT:?OnChildNotify@CWnd@@MAEHIIJPAJ@Z
	DD	FLAT:?OnTouchInputs@CWnd@@MAEHIPAUtagTOUCHINPUT@@@Z
	DD	FLAT:?OnTouchInput@CWnd@@MAEHVCPoint@@HHPAUtagTOUCHINPUT@@@Z
	DD	FLAT:?GetGestureStatus@CWnd@@MAEKVCPoint@@@Z
	DD	FLAT:?OnGestureZoom@CWnd@@MAEHVCPoint@@J@Z
	DD	FLAT:?OnGesturePan@CWnd@@MAEHVCPoint@@0@Z
	DD	FLAT:?OnGestureRotate@CWnd@@MAEHVCPoint@@N@Z
	DD	FLAT:?OnGestureTwoFingerTap@CWnd@@MAEHVCPoint@@@Z
	DD	FLAT:?OnGesturePressAndTap@CWnd@@MAEHVCPoint@@J@Z
	DD	FLAT:?ResizeDynamicLayout@CWnd@@MAEXXZ
	DD	FLAT:?CheckAutoCenter@CDialog@@UAEHXZ
	DD	FLAT:?IsFrameWnd@CWnd@@UBEHXZ
	DD	FLAT:?CreateControlContainer@CWnd@@MAEHPAPAVCOleControlContainer@@@Z
	DD	FLAT:?CreateControlSite@CWnd@@MAEHPAVCOleControlContainer@@PAPAVCOleControlSite@@IABU_GUID@@@Z
	DD	FLAT:?SetOccDialogInfo@CDialog@@MAEHPAU_AFX_OCC_DIALOG_INFO@@@Z
	DD	FLAT:?GetOccDialogInfo@CDialog@@MAEPAU_AFX_OCC_DIALOG_INFO@@XZ
	DD	FLAT:?Create@CDialog@@UAEHIPAVCWnd@@@Z
	DD	FLAT:?Create@CDialog@@UAEHPBDPAVCWnd@@@Z
	DD	FLAT:?CreateIndirect@CDialog@@UAEHPAXPAVCWnd@@@Z
	DD	FLAT:?CreateIndirect@CDialog@@UAEHPBUDLGTEMPLATE@@PAVCWnd@@PAX@Z
	DD	FLAT:?DoModal@CDialog@@UAEHXZ
	DD	FLAT:?OnInitDialog@CDialog@@UAEHXZ
	DD	FLAT:?OnSetFont@CDialog@@UAEXPAVCFont@@@Z
	DD	FLAT:?OnOK@CDialog@@MAEXXZ
	DD	FLAT:?OnCancel@CDialog@@MAEXXZ
	DD	FLAT:?PreInitDialog@CDialog@@MAEXXZ
CONST	ENDS
;	COMDAT ?messageMap@?1??GetThisMessageMap@CNewBoxesApp@@KGPBUAFX_MSGMAP@@XZ@4U3@B
CONST	SEGMENT
?messageMap@?1??GetThisMessageMap@CNewBoxesApp@@KGPBUAFX_MSGMAP@@XZ@4U3@B DD FLAT:?GetThisMessageMap@CWinApp@@KGPBUAFX_MSGMAP@@XZ ; `CNewBoxesApp::GetThisMessageMap'::`2'::messageMap
	DD	FLAT:?_messageEntries@?1??GetThisMessageMap@CNewBoxesApp@@KGPBUAFX_MSGMAP@@XZ@4QBUAFX_MSGMAP_ENTRY@@B
CONST	ENDS
;	COMDAT ?_messageEntries@?1??GetThisMessageMap@CNewBoxesApp@@KGPBUAFX_MSGMAP@@XZ@4QBUAFX_MSGMAP_ENTRY@@B
CONST	SEGMENT
?_messageEntries@?1??GetThisMessageMap@CNewBoxesApp@@KGPBUAFX_MSGMAP@@XZ@4QBUAFX_MSGMAP_ENTRY@@B DD 0111H ; `CNewBoxesApp::GetThisMessageMap'::`2'::_messageEntries
	DD	00H
	DD	0e140H
	DD	0e140H
	DD	03aH
	DD	FLAT:?OnAppAbout@CNewBoxesApp@@QAEXXZ
	DD	0111H
	DD	00H
	DD	0e100H
	DD	0e100H
	DD	03aH
	DD	FLAT:?OnFileNew@CWinApp@@IAEXXZ
	DD	0111H
	DD	00H
	DD	0e101H
	DD	0e101H
	DD	03aH
	DD	FLAT:?OnFileOpen@CWinApp@@IAEXXZ
	DD	0111H
	DD	00H
	DD	0e106H
	DD	0e106H
	DD	03aH
	DD	FLAT:?OnFilePrintSetup@CWinApp@@IAEXXZ
	DD	00H
	DD	00H
	DD	00H
	DD	00H
	DD	00H
	DD	00H
CONST	ENDS
_DATA	SEGMENT
?THIS_FILE@@3PADA DB 'C:\Users\15485\Desktop\', 0b9H, 0a4H, 0b3H, 0ccH, 0d6H
	DB	0aeH, 0d0H, 0c7H, 0b5H, 0e3H, 0b8H, 0f1H, 0c6H, 0e5H, '\', 0b9H
	DB	0a4H, 0b3H, 0ccH, 0d6H, 0aeH, 0d0H, 0c7H, 0b5H, 0e3H, 0b8H, 0f1H
	DB	0c6H, 0e5H, '\NewBoxes.cpp', 00H		; THIS_FILE
_DATA	ENDS
;	COMDAT ??_7CBoxesCommandLineInfo@@6B@
CONST	SEGMENT
??_7CBoxesCommandLineInfo@@6B@ DD FLAT:??_R4CBoxesCommandLineInfo@@6B@ ; CBoxesCommandLineInfo::`vftable'
	DD	FLAT:?GetRuntimeClass@CObject@@UBEPAUCRuntimeClass@@XZ
	DD	FLAT:??_ECBoxesCommandLineInfo@@UAEPAXI@Z
	DD	FLAT:?Serialize@CObject@@UAEXAAVCArchive@@@Z
	DD	FLAT:?AssertValid@CObject@@UBEXXZ
	DD	FLAT:?Dump@CObject@@UBEXAAVCDumpContext@@@Z
	DD	FLAT:?ParseParam@CBoxesCommandLineInfo@@EAEXPBDHH@Z
CONST	ENDS
;	COMDAT ??_7CNewBoxesApp@@6B@
CONST	SEGMENT
??_7CNewBoxesApp@@6B@ DD FLAT:??_R4CNewBoxesApp@@6B@	; CNewBoxesApp::`vftable'
	DD	FLAT:?GetRuntimeClass@CWinApp@@UBEPAUCRuntimeClass@@XZ
	DD	FLAT:??_ECNewBoxesApp@@UAEPAXI@Z
	DD	FLAT:?Serialize@CObject@@UAEXAAVCArchive@@@Z
	DD	FLAT:?AssertValid@CWinApp@@UBEXXZ
	DD	FLAT:?Dump@CWinApp@@UBEXAAVCDumpContext@@@Z
	DD	FLAT:?OnCmdMsg@CCmdTarget@@UAEHIHPAXPAUAFX_CMDHANDLERINFO@@@Z
	DD	FLAT:?OnFinalRelease@CCmdTarget@@UAEXXZ
	DD	FLAT:?IsInvokeAllowed@CCmdTarget@@UAEHJ@Z
	DD	FLAT:?GetDispatchIID@CCmdTarget@@UAEHPAU_GUID@@@Z
	DD	FLAT:?GetTypeInfoCount@CCmdTarget@@UAEIXZ
	DD	FLAT:?GetTypeLibCache@CCmdTarget@@UAEPAVCTypeLibCache@@XZ
	DD	FLAT:?GetTypeLib@CCmdTarget@@UAEJKPAPAUITypeLib@@@Z
	DD	FLAT:?GetMessageMap@CNewBoxesApp@@MBEPBUAFX_MSGMAP@@XZ
	DD	FLAT:?GetCommandMap@CCmdTarget@@MBEPBUAFX_OLECMDMAP@@XZ
	DD	FLAT:?GetDispatchMap@CCmdTarget@@MBEPBUAFX_DISPMAP@@XZ
	DD	FLAT:?GetConnectionMap@CCmdTarget@@MBEPBUAFX_CONNECTIONMAP@@XZ
	DD	FLAT:?GetInterfaceMap@CCmdTarget@@MBEPBUAFX_INTERFACEMAP@@XZ
	DD	FLAT:?GetEventSinkMap@CCmdTarget@@MBEPBUAFX_EVENTSINKMAP@@XZ
	DD	FLAT:?OnCreateAggregates@CCmdTarget@@UAEHXZ
	DD	FLAT:?GetInterfaceHook@CCmdTarget@@UAEPAUIUnknown@@PBX@Z
	DD	FLAT:?GetExtraConnectionPoints@CCmdTarget@@MAEHPAVCPtrArray@@@Z
	DD	FLAT:?GetConnectionHook@CCmdTarget@@MAEPAUIConnectionPoint@@ABU_GUID@@@Z
	DD	FLAT:?InitInstance@CNewBoxesApp@@UAEHXZ
	DD	FLAT:?Run@CWinApp@@UAEHXZ
	DD	FLAT:?PreTranslateMessage@CWinThread@@UAEHPAUtagMSG@@@Z
	DD	FLAT:?PumpMessage@CWinThread@@UAEHXZ
	DD	FLAT:?OnIdle@CWinApp@@UAEHJ@Z
	DD	FLAT:?IsIdleMessage@CWinThread@@UAEHPAUtagMSG@@@Z
	DD	FLAT:?ExitInstance@CWinApp@@UAEHXZ
	DD	FLAT:?ProcessWndProcException@CWinApp@@UAEJPAVCException@@PBUtagMSG@@@Z
	DD	FLAT:?ProcessMessageFilter@CWinThread@@UAEHHPAUtagMSG@@@Z
	DD	FLAT:?GetMainWnd@CWinThread@@UAEPAVCWnd@@XZ
	DD	FLAT:?Delete@CWinThread@@UAEXXZ
	DD	FLAT:?GetProfileIntA@CWinApp@@UAEIPBD0H@Z
	DD	FLAT:?WriteProfileInt@CWinApp@@UAEHPBD0H@Z
	DD	FLAT:?GetProfileStringA@CWinApp@@UAE?AV?$CStringT@DV?$StrTraitMFC_DLL@DV?$ChTraitsCRT@D@ATL@@@@@ATL@@PBD00@Z
	DD	FLAT:?WriteProfileStringA@CWinApp@@UAEHPBD00@Z
	DD	FLAT:?GetProfileBinary@CWinApp@@UAEHPBD0PAPAEPAI@Z
	DD	FLAT:?WriteProfileBinary@CWinApp@@UAEHPBD0PAEI@Z
	DD	FLAT:?InitLibId@CWinApp@@UAEXXZ
	DD	FLAT:?Register@CWinApp@@UAEHXZ
	DD	FLAT:?Unregister@CWinApp@@UAEHXZ
	DD	FLAT:?OpenDocumentFile@CWinApp@@UAEPAVCDocument@@PBDH@Z
	DD	FLAT:?OpenDocumentFile@CWinApp@@UAEPAVCDocument@@PBD@Z
	DD	FLAT:?AddToRecentFileList@CWinApp@@UAEXPBD@Z
	DD	FLAT:?InitApplication@CWinApp@@UAEHXZ
	DD	FLAT:?SaveAllModified@CWinApp@@UAEHXZ
	DD	FLAT:?DoMessageBox@CWinApp@@UAEHPBDII@Z
	DD	FLAT:?DoWaitCursor@CWinApp@@UAEXH@Z
	DD	FLAT:?OnDDECommand@CWinApp@@UAEHPAD@Z
	DD	FLAT:?WinHelpA@CWinApp@@UAEXKI@Z
	DD	FLAT:?HtmlHelpA@CWinApp@@UAEXKI@Z
	DD	FLAT:?WinHelpInternal@CWinApp@@UAEXKI@Z
	DD	FLAT:?RegisterWithRestartManager@CWinApp@@UAEJPB_WKP6GKPAX@Z1KK@Z
	DD	FLAT:?RegisterWithRestartManager@CWinApp@@UAEJHABV?$CStringT@DV?$StrTraitMFC_DLL@DV?$ChTraitsCRT@D@ATL@@@@@ATL@@@Z
	DD	FLAT:?ApplicationRecoveryCallback@CWinApp@@UAEKPAX@Z
	DD	FLAT:?SupportsRestartManager@CWinApp@@UBEHXZ
	DD	FLAT:?SupportsApplicationRecovery@CWinApp@@UBEHXZ
	DD	FLAT:?SupportsAutosaveAtRestart@CWinApp@@UBEHXZ
	DD	FLAT:?SupportsAutosaveAtInterval@CWinApp@@UBEHXZ
	DD	FLAT:?ReopenPreviousFilesAtRestart@CWinApp@@UBEHXZ
	DD	FLAT:?RestoreAutosavedFilesAtRestart@CWinApp@@UBEHXZ
	DD	FLAT:?GetApplicationRestartFlags@CWinApp@@UAEKXZ
	DD	FLAT:?GetApplicationRecoveryParameter@CWinApp@@UAEPAXXZ
	DD	FLAT:?GetApplicationRecoveryPingInterval@CWinApp@@UAEKXZ
	DD	FLAT:?GetDataRecoveryHandler@CWinApp@@UAEPAVCDataRecoveryHandler@@XZ
	DD	FLAT:?IsTaskbarInteractionEnabled@CWinApp@@UAEHXZ
	DD	FLAT:?RestartInstance@CWinApp@@UAEHXZ
	DD	FLAT:?LoadAppLangResourceDLL@CWinApp@@UAEPAUHINSTANCE__@@XZ
	DD	FLAT:?LoadSysPolicies@CWinApp@@UAEHXZ
CONST	ENDS
;	COMDAT ??_R2CCmdTarget@@8
rdata$r	SEGMENT
??_R2CCmdTarget@@8 DD FLAT:??_R1A@?0A@EA@CCmdTarget@@8	; CCmdTarget::`RTTI Base Class Array'
	DD	FLAT:??_R1A@?0A@EA@CObject@@8
rdata$r	ENDS
;	COMDAT ??_R3CCmdTarget@@8
rdata$r	SEGMENT
??_R3CCmdTarget@@8 DD 00H				; CCmdTarget::`RTTI Class Hierarchy Descriptor'
	DD	00H
	DD	02H
	DD	FLAT:??_R2CCmdTarget@@8
rdata$r	ENDS
;	COMDAT ??_R0?AVCCmdTarget@@@8
data$rs	SEGMENT
??_R0?AVCCmdTarget@@@8 DD FLAT:??_7type_info@@6B@	; CCmdTarget `RTTI Type Descriptor'
	DD	00H
	DB	'.?AVCCmdTarget@@', 00H
data$rs	ENDS
;	COMDAT ??_R1A@?0A@EA@CCmdTarget@@8
rdata$r	SEGMENT
??_R1A@?0A@EA@CCmdTarget@@8 DD FLAT:??_R0?AVCCmdTarget@@@8 ; CCmdTarget::`RTTI Base Class Descriptor at (0,-1,0,64)'
	DD	01H
	DD	00H
	DD	0ffffffffH
	DD	00H
	DD	040H
	DD	FLAT:??_R3CCmdTarget@@8
rdata$r	ENDS
;	COMDAT ??_R2CWnd@@8
rdata$r	SEGMENT
??_R2CWnd@@8 DD	FLAT:??_R1A@?0A@EA@CWnd@@8		; CWnd::`RTTI Base Class Array'
	DD	FLAT:??_R1A@?0A@EA@CCmdTarget@@8
	DD	FLAT:??_R1A@?0A@EA@CObject@@8
rdata$r	ENDS
;	COMDAT ??_R3CWnd@@8
rdata$r	SEGMENT
??_R3CWnd@@8 DD	00H					; CWnd::`RTTI Class Hierarchy Descriptor'
	DD	00H
	DD	03H
	DD	FLAT:??_R2CWnd@@8
rdata$r	ENDS
;	COMDAT ??_R0?AVCWnd@@@8
data$rs	SEGMENT
??_R0?AVCWnd@@@8 DD FLAT:??_7type_info@@6B@		; CWnd `RTTI Type Descriptor'
	DD	00H
	DB	'.?AVCWnd@@', 00H
data$rs	ENDS
;	COMDAT ??_R1A@?0A@EA@CWnd@@8
rdata$r	SEGMENT
??_R1A@?0A@EA@CWnd@@8 DD FLAT:??_R0?AVCWnd@@@8		; CWnd::`RTTI Base Class Descriptor at (0,-1,0,64)'
	DD	02H
	DD	00H
	DD	0ffffffffH
	DD	00H
	DD	040H
	DD	FLAT:??_R3CWnd@@8
rdata$r	ENDS
;	COMDAT ??_R2CDialog@@8
rdata$r	SEGMENT
??_R2CDialog@@8 DD FLAT:??_R1A@?0A@EA@CDialog@@8	; CDialog::`RTTI Base Class Array'
	DD	FLAT:??_R1A@?0A@EA@CWnd@@8
	DD	FLAT:??_R1A@?0A@EA@CCmdTarget@@8
	DD	FLAT:??_R1A@?0A@EA@CObject@@8
rdata$r	ENDS
;	COMDAT ??_R3CDialog@@8
rdata$r	SEGMENT
??_R3CDialog@@8 DD 00H					; CDialog::`RTTI Class Hierarchy Descriptor'
	DD	00H
	DD	04H
	DD	FLAT:??_R2CDialog@@8
rdata$r	ENDS
;	COMDAT ??_R0?AVCDialog@@@8
data$rs	SEGMENT
??_R0?AVCDialog@@@8 DD FLAT:??_7type_info@@6B@		; CDialog `RTTI Type Descriptor'
	DD	00H
	DB	'.?AVCDialog@@', 00H
data$rs	ENDS
;	COMDAT ??_R1A@?0A@EA@CDialog@@8
rdata$r	SEGMENT
??_R1A@?0A@EA@CDialog@@8 DD FLAT:??_R0?AVCDialog@@@8	; CDialog::`RTTI Base Class Descriptor at (0,-1,0,64)'
	DD	03H
	DD	00H
	DD	0ffffffffH
	DD	00H
	DD	040H
	DD	FLAT:??_R3CDialog@@8
rdata$r	ENDS
;	COMDAT ??_R2CObject@@8
rdata$r	SEGMENT
??_R2CObject@@8 DD FLAT:??_R1A@?0A@EA@CObject@@8	; CObject::`RTTI Base Class Array'
rdata$r	ENDS
;	COMDAT ??_R3CObject@@8
rdata$r	SEGMENT
??_R3CObject@@8 DD 00H					; CObject::`RTTI Class Hierarchy Descriptor'
	DD	00H
	DD	01H
	DD	FLAT:??_R2CObject@@8
rdata$r	ENDS
;	COMDAT ??_R0?AVCObject@@@8
data$rs	SEGMENT
??_R0?AVCObject@@@8 DD FLAT:??_7type_info@@6B@		; CObject `RTTI Type Descriptor'
	DD	00H
	DB	'.?AVCObject@@', 00H
data$rs	ENDS
;	COMDAT ??_R1A@?0A@EA@CObject@@8
rdata$r	SEGMENT
??_R1A@?0A@EA@CObject@@8 DD FLAT:??_R0?AVCObject@@@8	; CObject::`RTTI Base Class Descriptor at (0,-1,0,64)'
	DD	00H
	DD	00H
	DD	0ffffffffH
	DD	00H
	DD	040H
	DD	FLAT:??_R3CObject@@8
rdata$r	ENDS
;	COMDAT ??_C@_1LM@KONDCONO@?$AAG?$AA?3?$AA?2?$AAM?$AAi?$AAc?$AAr?$AAo?$AAs?$AAo?$AAf?$AAt?$AA?5?$AAV?$AAi@
CONST	SEGMENT
??_C@_1LM@KONDCONO@?$AAG?$AA?3?$AA?2?$AAM?$AAi?$AAc?$AAr?$AAo?$AAs?$AAo?$AAf?$AAt?$AA?5?$AAV?$AAi@ DB 'G'
	DB	00H, ':', 00H, '\', 00H, 'M', 00H, 'i', 00H, 'c', 00H, 'r', 00H
	DB	'o', 00H, 's', 00H, 'o', 00H, 'f', 00H, 't', 00H, ' ', 00H, 'V'
	DB	00H, 'i', 00H, 's', 00H, 'u', 00H, 'a', 00H, 'l', 00H, ' ', 00H
	DB	'S', 00H, 't', 00H, 'u', 00H, 'd', 00H, 'i', 00H, 'o', 00H, '\'
	DB	00H, '2', 00H, '0', 00H, '2', 00H, '2', 00H, '\', 00H, 'C', 00H
	DB	'o', 00H, 'm', 00H, 'm', 00H, 'u', 00H, 'n', 00H, 'i', 00H, 't'
	DB	00H, 'y', 00H, '\', 00H, 'V', 00H, 'C', 00H, '\', 00H, 'T', 00H
	DB	'o', 00H, 'o', 00H, 'l', 00H, 's', 00H, '\', 00H, 'M', 00H, 'S'
	DB	00H, 'V', 00H, 'C', 00H, '\', 00H, '1', 00H, '4', 00H, '.', 00H
	DB	'3', 00H, '5', 00H, '.', 00H, '3', 00H, '2', 00H, '2', 00H, '1'
	DB	00H, '5', 00H, '\', 00H, 'a', 00H, 't', 00H, 'l', 00H, 'm', 00H
	DB	'f', 00H, 'c', 00H, '\', 00H, 'i', 00H, 'n', 00H, 'c', 00H, 'l'
	DB	00H, 'u', 00H, 'd', 00H, 'e', 00H, '\', 00H, 'a', 00H, 't', 00H
	DB	'l', 00H, 't', 00H, 'r', 00H, 'a', 00H, 'c', 00H, 'e', 00H, '.'
	DB	00H, 'h', 00H, 00H, 00H			; `string'
CONST	ENDS
;	COMDAT ??_C@_1EO@EBPPKGOM@?$AAf?$AAa?$AAl?$AAs?$AAe?$AA?5?$AA?$CG?$AA?$CG?$AA?5?$AA?$CC?$AAT?$AAo?$AAo?$AA?5?$AAm@
CONST	SEGMENT
??_C@_1EO@EBPPKGOM@?$AAf?$AAa?$AAl?$AAs?$AAe?$AA?5?$AA?$CG?$AA?$CG?$AA?5?$AA?$CC?$AAT?$AAo?$AAo?$AA?5?$AAm@ DB 'f'
	DB	00H, 'a', 00H, 'l', 00H, 's', 00H, 'e', 00H, ' ', 00H, '&', 00H
	DB	'&', 00H, ' ', 00H, '"', 00H, 'T', 00H, 'o', 00H, 'o', 00H, ' '
	DB	00H, 'm', 00H, 'a', 00H, 'n', 00H, 'y', 00H, ' ', 00H, 'c', 00H
	DB	'a', 00H, 't', 00H, 'e', 00H, 'g', 00H, 'o', 00H, 'r', 00H, 'i'
	DB	00H, 'e', 00H, 's', 00H, ' ', 00H, 'd', 00H, 'e', 00H, 'f', 00H
	DB	'i', 00H, 'n', 00H, 'e', 00H, 'd', 00H, '"', 00H, 00H, 00H ; `string'
CONST	ENDS
;	COMDAT ??_C@_17LGGGMOOB@?$AA?$CF?$AAh?$AAs@
CONST	SEGMENT
??_C@_17LGGGMOOB@?$AA?$CF?$AAh?$AAs@ DB '%', 00H, 'h', 00H, 's', 00H, 00H
	DB	00H						; `string'
CONST	ENDS
;	COMDAT ??_C@_17CNPHIMPH@?$AA?$CF?$AAl?$AAs@
CONST	SEGMENT
??_C@_17CNPHIMPH@?$AA?$CF?$AAl?$AAs@ DB '%', 00H, 'l', 00H, 's', 00H, 00H
	DB	00H						; `string'
CONST	ENDS
voltbl	SEGMENT
_volmd	DD	0ffffffffH
	DDSymXIndex: 	FLAT:__unwindfunclet$?OnAppAbout@CNewBoxesApp@@QAEXXZ$0
	DD	019H
_volmd	DD	0ffffffffH
	DDSymXIndex: 	FLAT:__unwindfunclet$?InitInstance@CNewBoxesApp@@UAEHXZ$0
	DD	027H
voltbl	ENDS
xdata$x	SEGMENT
__unwindtable$?OnAppAbout@CNewBoxesApp@@QAEXXZ DD 0ffffffffH
	DD	FLAT:__unwindfunclet$?OnAppAbout@CNewBoxesApp@@QAEXXZ$0
__unwindtable$?InitInstance@CNewBoxesApp@@UAEHXZ DD 0ffffffffH
	DD	FLAT:__unwindfunclet$?InitInstance@CNewBoxesApp@@UAEHXZ$0
	DD	0ffffffffH
	DD	FLAT:__unwindfunclet$?InitInstance@CNewBoxesApp@@UAEHXZ$1
__ehfuncinfo$?OnAppAbout@CNewBoxesApp@@QAEXXZ DD 019930522H
	DD	01H
	DD	FLAT:__unwindtable$?OnAppAbout@CNewBoxesApp@@QAEXXZ
	DD	2 DUP(00H)
	DD	2 DUP(00H)
	DD	00H
	DD	01H
__ehfuncinfo$?InitInstance@CNewBoxesApp@@UAEHXZ DD 019930522H
	DD	02H
	DD	FLAT:__unwindtable$?InitInstance@CNewBoxesApp@@UAEHXZ
	DD	2 DUP(00H)
	DD	2 DUP(00H)
	DD	00H
	DD	01H
xdata$x	ENDS
;	COMDAT voltbl
voltbl	SEGMENT
_volmd	DW	024H
	DW	0100H
voltbl	ENDS
CRT$XCU	SEGMENT
?testFile$initializer$@@3P6AXXZA DD FLAT:??__EtestFile@@YAXXZ ; testFile$initializer$
CRT$XCU	ENDS
CRT$XCU	SEGMENT
?theApp$initializer$@@3P6AXXZA DD FLAT:??__EtheApp@@YAXXZ ; theApp$initializer$
CRT$XCU	ENDS
; Function compile flags: /Odtp /RTCsu
;	COMDAT ??_GCAboutDlg@@UAEPAXI@Z
_TEXT	SEGMENT
_this$ = -4						; size = 4
___flags$ = 8						; size = 4
??_GCAboutDlg@@UAEPAXI@Z PROC				; CAboutDlg::`scalar deleting destructor', COMDAT
; _this$ = ecx
  00000	55		 push	 ebp
  00001	8b ec		 mov	 ebp, esp
  00003	51		 push	 ecx
  00004	c7 45 fc cc cc
	cc cc		 mov	 DWORD PTR [ebp-4], -858993460 ; ccccccccH
  0000b	89 4d fc	 mov	 DWORD PTR _this$[ebp], ecx
  0000e	8b 4d fc	 mov	 ecx, DWORD PTR _this$[ebp]
  00011	e8 00 00 00 00	 call	 ??1CAboutDlg@@UAE@XZ
  00016	8b 45 08	 mov	 eax, DWORD PTR ___flags$[ebp]
  00019	83 e0 01	 and	 eax, 1
  0001c	74 24		 je	 SHORT $LN2@scalar
  0001e	8b 4d 08	 mov	 ecx, DWORD PTR ___flags$[ebp]
  00021	83 e1 04	 and	 ecx, 4
  00024	75 0b		 jne	 SHORT $LN3@scalar
  00026	8b 55 fc	 mov	 edx, DWORD PTR _this$[ebp]
  00029	52		 push	 edx
  0002a	e8 00 00 00 00	 call	 ??3CObject@@SGXPAX@Z	; CObject::operator delete
  0002f	eb 11		 jmp	 SHORT $LN2@scalar
$LN3@scalar:
  00031	68 a8 00 00 00	 push	 168			; 000000a8H
  00036	8b 45 fc	 mov	 eax, DWORD PTR _this$[ebp]
  00039	50		 push	 eax
  0003a	e8 00 00 00 00	 call	 ?__global_delete@@YAXPAXI@Z ; __global_delete
  0003f	83 c4 08	 add	 esp, 8
$LN2@scalar:
  00042	8b 45 fc	 mov	 eax, DWORD PTR _this$[ebp]
  00045	83 c4 04	 add	 esp, 4
  00048	3b ec		 cmp	 ebp, esp
  0004a	e8 00 00 00 00	 call	 __RTC_CheckEsp
  0004f	8b e5		 mov	 esp, ebp
  00051	5d		 pop	 ebp
  00052	c2 04 00	 ret	 4
??_GCAboutDlg@@UAEPAXI@Z ENDP				; CAboutDlg::`scalar deleting destructor'
_TEXT	ENDS
; Function compile flags: /Odtp /RTCsu
;	COMDAT ??1CAboutDlg@@UAE@XZ
_TEXT	SEGMENT
_this$ = -4						; size = 4
??1CAboutDlg@@UAE@XZ PROC				; CAboutDlg::~CAboutDlg, COMDAT
; _this$ = ecx
  00000	55		 push	 ebp
  00001	8b ec		 mov	 ebp, esp
  00003	51		 push	 ecx
  00004	c7 45 fc cc cc
	cc cc		 mov	 DWORD PTR [ebp-4], -858993460 ; ccccccccH
  0000b	89 4d fc	 mov	 DWORD PTR _this$[ebp], ecx
  0000e	8b 4d fc	 mov	 ecx, DWORD PTR _this$[ebp]
  00011	e8 00 00 00 00	 call	 ??1CDialog@@UAE@XZ	; CDialog::~CDialog
  00016	83 c4 04	 add	 esp, 4
  00019	3b ec		 cmp	 ebp, esp
  0001b	e8 00 00 00 00	 call	 __RTC_CheckEsp
  00020	8b e5		 mov	 esp, ebp
  00022	5d		 pop	 ebp
  00023	c3		 ret	 0
??1CAboutDlg@@UAE@XZ ENDP				; CAboutDlg::~CAboutDlg
_TEXT	ENDS
; Function compile flags: /Odtp /RTCsu
; File C:\Users\15485\Desktop\工程之星点格棋\工程之星点格棋\NewBoxes.cpp
_TEXT	SEGMENT
_this$ = -4						; size = 4
?GetMessageMap@CAboutDlg@@MBEPBUAFX_MSGMAP@@XZ PROC	; CAboutDlg::GetMessageMap
; _this$ = ecx

; 164  : BEGIN_MESSAGE_MAP(CAboutDlg, CDialog)

  00000	55		 push	 ebp
  00001	8b ec		 mov	 ebp, esp
  00003	51		 push	 ecx
  00004	c7 45 fc cc cc
	cc cc		 mov	 DWORD PTR [ebp-4], -858993460 ; ccccccccH
  0000b	89 4d fc	 mov	 DWORD PTR _this$[ebp], ecx
  0000e	e8 00 00 00 00	 call	 ?GetThisMessageMap@CAboutDlg@@KGPBUAFX_MSGMAP@@XZ ; CAboutDlg::GetThisMessageMap
  00013	83 c4 04	 add	 esp, 4
  00016	3b ec		 cmp	 ebp, esp
  00018	e8 00 00 00 00	 call	 __RTC_CheckEsp
  0001d	8b e5		 mov	 esp, ebp
  0001f	5d		 pop	 ebp
  00020	c3		 ret	 0
?GetMessageMap@CAboutDlg@@MBEPBUAFX_MSGMAP@@XZ ENDP	; CAboutDlg::GetMessageMap
_TEXT	ENDS
; Function compile flags: /Odtp /RTCsu
; File C:\Users\15485\Desktop\工程之星点格棋\工程之星点格棋\NewBoxes.cpp
_TEXT	SEGMENT
?GetThisMessageMap@CAboutDlg@@KGPBUAFX_MSGMAP@@XZ PROC	; CAboutDlg::GetThisMessageMap

; 164  : BEGIN_MESSAGE_MAP(CAboutDlg, CDialog)

  00000	55		 push	 ebp
  00001	8b ec		 mov	 ebp, esp

; 165  : 	//{{AFX_MSG_MAP(CAboutDlg)
; 166  : 		// No message handlers
; 167  : 	//}}AFX_MSG_MAP
; 168  : END_MESSAGE_MAP()

  00003	b8 00 00 00 00	 mov	 eax, OFFSET ?messageMap@?1??GetThisMessageMap@CAboutDlg@@KGPBUAFX_MSGMAP@@XZ@4U3@B
  00008	5d		 pop	 ebp
  00009	c3		 ret	 0
?GetThisMessageMap@CAboutDlg@@KGPBUAFX_MSGMAP@@XZ ENDP	; CAboutDlg::GetThisMessageMap
_TEXT	ENDS
; Function compile flags: /Odtp /RTCsu
; File C:\Users\15485\Desktop\工程之星点格棋\工程之星点格棋\NewBoxes.cpp
_TEXT	SEGMENT
_this$ = -4						; size = 4
_pDX$ = 8						; size = 4
?DoDataExchange@CAboutDlg@@MAEXPAVCDataExchange@@@Z PROC ; CAboutDlg::DoDataExchange
; _this$ = ecx

; 158  : {

  00000	55		 push	 ebp
  00001	8b ec		 mov	 ebp, esp
  00003	51		 push	 ecx
  00004	c7 45 fc cc cc
	cc cc		 mov	 DWORD PTR [ebp-4], -858993460 ; ccccccccH
  0000b	89 4d fc	 mov	 DWORD PTR _this$[ebp], ecx

; 159  : 	CDialog::DoDataExchange(pDX);

  0000e	8b 45 08	 mov	 eax, DWORD PTR _pDX$[ebp]
  00011	50		 push	 eax
  00012	8b 4d fc	 mov	 ecx, DWORD PTR _this$[ebp]
  00015	e8 00 00 00 00	 call	 ?DoDataExchange@CWnd@@MAEXPAVCDataExchange@@@Z ; CWnd::DoDataExchange

; 160  : 	//{{AFX_DATA_MAP(CAboutDlg)
; 161  : 	//}}AFX_DATA_MAP
; 162  : }

  0001a	83 c4 04	 add	 esp, 4
  0001d	3b ec		 cmp	 ebp, esp
  0001f	e8 00 00 00 00	 call	 __RTC_CheckEsp
  00024	8b e5		 mov	 esp, ebp
  00026	5d		 pop	 ebp
  00027	c2 04 00	 ret	 4
?DoDataExchange@CAboutDlg@@MAEXPAVCDataExchange@@@Z ENDP ; CAboutDlg::DoDataExchange
_TEXT	ENDS
; Function compile flags: /Odtp /RTCsu
; File C:\Users\15485\Desktop\工程之星点格棋\工程之星点格棋\NewBoxes.cpp
_TEXT	SEGMENT
_this$ = -4						; size = 4
??0CAboutDlg@@QAE@XZ PROC				; CAboutDlg::CAboutDlg
; _this$ = ecx

; 152  : {

  00000	55		 push	 ebp
  00001	8b ec		 mov	 ebp, esp
  00003	51		 push	 ecx
  00004	c7 45 fc cc cc
	cc cc		 mov	 DWORD PTR [ebp-4], -858993460 ; ccccccccH
  0000b	89 4d fc	 mov	 DWORD PTR _this$[ebp], ecx

; 151  : CAboutDlg::CAboutDlg() : CDialog(CAboutDlg::IDD)

  0000e	6a 00		 push	 0
  00010	6a 64		 push	 100			; 00000064H
  00012	8b 4d fc	 mov	 ecx, DWORD PTR _this$[ebp]
  00015	e8 00 00 00 00	 call	 ??0CDialog@@QAE@IPAVCWnd@@@Z ; CDialog::CDialog

; 152  : {

  0001a	8b 45 fc	 mov	 eax, DWORD PTR _this$[ebp]
  0001d	c7 00 00 00 00
	00		 mov	 DWORD PTR [eax], OFFSET ??_7CAboutDlg@@6B@

; 153  : 	//{{AFX_DATA_INIT(CAboutDlg)
; 154  : 	//}}AFX_DATA_INIT
; 155  : }

  00023	8b 45 fc	 mov	 eax, DWORD PTR _this$[ebp]
  00026	83 c4 04	 add	 esp, 4
  00029	3b ec		 cmp	 ebp, esp
  0002b	e8 00 00 00 00	 call	 __RTC_CheckEsp
  00030	8b e5		 mov	 esp, ebp
  00032	5d		 pop	 ebp
  00033	c3		 ret	 0
??0CAboutDlg@@QAE@XZ ENDP				; CAboutDlg::CAboutDlg
_TEXT	ENDS
; Function compile flags: /Odtp /RTCsu
;	COMDAT ??__FtheApp@@YAXXZ
text$yd	SEGMENT
??__FtheApp@@YAXXZ PROC					; `dynamic atexit destructor for 'theApp'', COMDAT
  00000	55		 push	 ebp
  00001	8b ec		 mov	 ebp, esp
  00003	b9 00 00 00 00	 mov	 ecx, OFFSET ?theApp@@3VCNewBoxesApp@@A ; theApp
  00008	e8 00 00 00 00	 call	 ??1CNewBoxesApp@@UAE@XZ
  0000d	3b ec		 cmp	 ebp, esp
  0000f	e8 00 00 00 00	 call	 __RTC_CheckEsp
  00014	5d		 pop	 ebp
  00015	c3		 ret	 0
??__FtheApp@@YAXXZ ENDP					; `dynamic atexit destructor for 'theApp''
text$yd	ENDS
; Function compile flags: /Odtp /RTCsu
; File C:\Users\15485\Desktop\工程之星点格棋\工程之星点格棋\NewBoxes.cpp
;	COMDAT ??__EtheApp@@YAXXZ
text$di	SEGMENT
??__EtheApp@@YAXXZ PROC					; `dynamic initializer for 'theApp'', COMDAT

; 51   : CNewBoxesApp theApp;

  00000	55		 push	 ebp
  00001	8b ec		 mov	 ebp, esp
  00003	b9 00 00 00 00	 mov	 ecx, OFFSET ?theApp@@3VCNewBoxesApp@@A ; theApp
  00008	e8 00 00 00 00	 call	 ??0CNewBoxesApp@@QAE@XZ	; CNewBoxesApp::CNewBoxesApp
  0000d	68 00 00 00 00	 push	 OFFSET ??__FtheApp@@YAXXZ ; `dynamic atexit destructor for 'theApp''
  00012	e8 00 00 00 00	 call	 _atexit
  00017	83 c4 04	 add	 esp, 4
  0001a	3b ec		 cmp	 ebp, esp
  0001c	e8 00 00 00 00	 call	 __RTC_CheckEsp
  00021	5d		 pop	 ebp
  00022	c3		 ret	 0
??__EtheApp@@YAXXZ ENDP					; `dynamic initializer for 'theApp''
text$di	ENDS
; Function compile flags: /Odtp /RTCsu
;	COMDAT ??__FtestFile@@YAXXZ
text$yd	SEGMENT
??__FtestFile@@YAXXZ PROC				; `dynamic atexit destructor for 'testFile'', COMDAT
  00000	55		 push	 ebp
  00001	8b ec		 mov	 ebp, esp
  00003	56		 push	 esi
  00004	8b f4		 mov	 esi, esp
  00006	b9 00 00 00 00	 mov	 ecx, OFFSET ?testFile@@3V?$CStringT@DV?$StrTraitMFC_DLL@DV?$ChTraitsCRT@D@ATL@@@@@ATL@@A ; testFile
  0000b	ff 15 00 00 00
	00		 call	 DWORD PTR __imp_??1?$CStringT@DV?$StrTraitMFC_DLL@DV?$ChTraitsCRT@D@ATL@@@@@ATL@@QAE@XZ
  00011	3b f4		 cmp	 esi, esp
  00013	e8 00 00 00 00	 call	 __RTC_CheckEsp
  00018	5e		 pop	 esi
  00019	3b ec		 cmp	 ebp, esp
  0001b	e8 00 00 00 00	 call	 __RTC_CheckEsp
  00020	5d		 pop	 ebp
  00021	c3		 ret	 0
??__FtestFile@@YAXXZ ENDP				; `dynamic atexit destructor for 'testFile''
text$yd	ENDS
; Function compile flags: /Odtp /RTCsu
; File C:\Users\15485\Desktop\工程之星点格棋\工程之星点格棋\NewBoxes.cpp
;	COMDAT ??__EtestFile@@YAXXZ
text$di	SEGMENT
??__EtestFile@@YAXXZ PROC				; `dynamic initializer for 'testFile'', COMDAT

; 22   : CString testFile;

  00000	55		 push	 ebp
  00001	8b ec		 mov	 ebp, esp
  00003	56		 push	 esi
  00004	8b f4		 mov	 esi, esp
  00006	b9 00 00 00 00	 mov	 ecx, OFFSET ?testFile@@3V?$CStringT@DV?$StrTraitMFC_DLL@DV?$ChTraitsCRT@D@ATL@@@@@ATL@@A ; testFile
  0000b	ff 15 00 00 00
	00		 call	 DWORD PTR __imp_??0?$CStringT@DV?$StrTraitMFC_DLL@DV?$ChTraitsCRT@D@ATL@@@@@ATL@@QAE@XZ
  00011	3b f4		 cmp	 esi, esp
  00013	e8 00 00 00 00	 call	 __RTC_CheckEsp
  00018	68 00 00 00 00	 push	 OFFSET ??__FtestFile@@YAXXZ ; `dynamic atexit destructor for 'testFile''
  0001d	e8 00 00 00 00	 call	 _atexit
  00022	83 c4 04	 add	 esp, 4
  00025	5e		 pop	 esi
  00026	3b ec		 cmp	 ebp, esp
  00028	e8 00 00 00 00	 call	 __RTC_CheckEsp
  0002d	5d		 pop	 ebp
  0002e	c3		 ret	 0
??__EtestFile@@YAXXZ ENDP				; `dynamic initializer for 'testFile''
text$di	ENDS
; Function compile flags: /Odtp /RTCsu
;	COMDAT ??_GCBoxesCommandLineInfo@@UAEPAXI@Z
_TEXT	SEGMENT
_this$ = -4						; size = 4
___flags$ = 8						; size = 4
??_GCBoxesCommandLineInfo@@UAEPAXI@Z PROC		; CBoxesCommandLineInfo::`scalar deleting destructor', COMDAT
; _this$ = ecx
  00000	55		 push	 ebp
  00001	8b ec		 mov	 ebp, esp
  00003	51		 push	 ecx
  00004	c7 45 fc cc cc
	cc cc		 mov	 DWORD PTR [ebp-4], -858993460 ; ccccccccH
  0000b	89 4d fc	 mov	 DWORD PTR _this$[ebp], ecx
  0000e	8b 4d fc	 mov	 ecx, DWORD PTR _this$[ebp]
  00011	e8 00 00 00 00	 call	 ??1CBoxesCommandLineInfo@@UAE@XZ
  00016	8b 45 08	 mov	 eax, DWORD PTR ___flags$[ebp]
  00019	83 e0 01	 and	 eax, 1
  0001c	74 21		 je	 SHORT $LN2@scalar
  0001e	8b 4d 08	 mov	 ecx, DWORD PTR ___flags$[ebp]
  00021	83 e1 04	 and	 ecx, 4
  00024	75 0b		 jne	 SHORT $LN3@scalar
  00026	8b 55 fc	 mov	 edx, DWORD PTR _this$[ebp]
  00029	52		 push	 edx
  0002a	e8 00 00 00 00	 call	 ??3CObject@@SGXPAX@Z	; CObject::operator delete
  0002f	eb 0e		 jmp	 SHORT $LN2@scalar
$LN3@scalar:
  00031	6a 2c		 push	 44			; 0000002cH
  00033	8b 45 fc	 mov	 eax, DWORD PTR _this$[ebp]
  00036	50		 push	 eax
  00037	e8 00 00 00 00	 call	 ?__global_delete@@YAXPAXI@Z ; __global_delete
  0003c	83 c4 08	 add	 esp, 8
$LN2@scalar:
  0003f	8b 45 fc	 mov	 eax, DWORD PTR _this$[ebp]
  00042	83 c4 04	 add	 esp, 4
  00045	3b ec		 cmp	 ebp, esp
  00047	e8 00 00 00 00	 call	 __RTC_CheckEsp
  0004c	8b e5		 mov	 esp, ebp
  0004e	5d		 pop	 ebp
  0004f	c2 04 00	 ret	 4
??_GCBoxesCommandLineInfo@@UAEPAXI@Z ENDP		; CBoxesCommandLineInfo::`scalar deleting destructor'
_TEXT	ENDS
; Function compile flags: /Odtp /RTCsu
;	COMDAT ??1CBoxesCommandLineInfo@@UAE@XZ
_TEXT	SEGMENT
_this$ = -4						; size = 4
??1CBoxesCommandLineInfo@@UAE@XZ PROC			; CBoxesCommandLineInfo::~CBoxesCommandLineInfo, COMDAT
; _this$ = ecx
  00000	55		 push	 ebp
  00001	8b ec		 mov	 ebp, esp
  00003	51		 push	 ecx
  00004	c7 45 fc cc cc
	cc cc		 mov	 DWORD PTR [ebp-4], -858993460 ; ccccccccH
  0000b	89 4d fc	 mov	 DWORD PTR _this$[ebp], ecx
  0000e	8b 4d fc	 mov	 ecx, DWORD PTR _this$[ebp]
  00011	e8 00 00 00 00	 call	 ??1CCommandLineInfo@@UAE@XZ ; CCommandLineInfo::~CCommandLineInfo
  00016	83 c4 04	 add	 esp, 4
  00019	3b ec		 cmp	 ebp, esp
  0001b	e8 00 00 00 00	 call	 __RTC_CheckEsp
  00020	8b e5		 mov	 esp, ebp
  00022	5d		 pop	 ebp
  00023	c3		 ret	 0
??1CBoxesCommandLineInfo@@UAE@XZ ENDP			; CBoxesCommandLineInfo::~CBoxesCommandLineInfo
_TEXT	ENDS
; Function compile flags: /Odtp /RTCsu
;	COMDAT ??0CBoxesCommandLineInfo@@QAE@XZ
_TEXT	SEGMENT
_this$ = -4						; size = 4
??0CBoxesCommandLineInfo@@QAE@XZ PROC			; CBoxesCommandLineInfo::CBoxesCommandLineInfo, COMDAT
; _this$ = ecx
  00000	55		 push	 ebp
  00001	8b ec		 mov	 ebp, esp
  00003	51		 push	 ecx
  00004	c7 45 fc cc cc
	cc cc		 mov	 DWORD PTR [ebp-4], -858993460 ; ccccccccH
  0000b	89 4d fc	 mov	 DWORD PTR _this$[ebp], ecx
  0000e	8b 4d fc	 mov	 ecx, DWORD PTR _this$[ebp]
  00011	e8 00 00 00 00	 call	 ??0CCommandLineInfo@@QAE@XZ ; CCommandLineInfo::CCommandLineInfo
  00016	8b 45 fc	 mov	 eax, DWORD PTR _this$[ebp]
  00019	c7 00 00 00 00
	00		 mov	 DWORD PTR [eax], OFFSET ??_7CBoxesCommandLineInfo@@6B@
  0001f	8b 45 fc	 mov	 eax, DWORD PTR _this$[ebp]
  00022	83 c4 04	 add	 esp, 4
  00025	3b ec		 cmp	 ebp, esp
  00027	e8 00 00 00 00	 call	 __RTC_CheckEsp
  0002c	8b e5		 mov	 esp, ebp
  0002e	5d		 pop	 ebp
  0002f	c3		 ret	 0
??0CBoxesCommandLineInfo@@QAE@XZ ENDP			; CBoxesCommandLineInfo::CBoxesCommandLineInfo
_TEXT	ENDS
; Function compile flags: /Odtp /RTCsu
; File C:\Users\15485\Desktop\工程之星点格棋\工程之星点格棋\NewBoxes.cpp
_TEXT	SEGMENT
_this$ = -4						; size = 4
_lpszParam$ = 8						; size = 4
_bFlag$ = 12						; size = 4
___formal$ = 16						; size = 4
?ParseParam@CBoxesCommandLineInfo@@EAEXPBDHH@Z PROC	; CBoxesCommandLineInfo::ParseParam
; _this$ = ecx

; 109  : {

  00000	55		 push	 ebp
  00001	8b ec		 mov	 ebp, esp
  00003	51		 push	 ecx
  00004	56		 push	 esi
  00005	c7 45 fc cc cc
	cc cc		 mov	 DWORD PTR [ebp-4], -858993460 ; ccccccccH
  0000c	89 4d fc	 mov	 DWORD PTR _this$[ebp], ecx

; 110  :   if (bFlag)

  0000f	83 7d 0c 00	 cmp	 DWORD PTR _bFlag$[ebp], 0
  00013	74 55		 je	 SHORT $LN1@ParseParam

; 111  :   {
; 112  :     if (lpszParam[0] == 't')

  00015	b8 01 00 00 00	 mov	 eax, 1
  0001a	6b c8 00	 imul	 ecx, eax, 0
  0001d	8b 55 08	 mov	 edx, DWORD PTR _lpszParam$[ebp]
  00020	0f be 04 0a	 movsx	 eax, BYTE PTR [edx+ecx]
  00024	83 f8 74	 cmp	 eax, 116		; 00000074H
  00027	75 24		 jne	 SHORT $LN3@ParseParam

; 113  :     {
; 114  :       tOption = true;

  00029	c6 05 00 00 00
	00 01		 mov	 BYTE PTR ?tOption@@3_NA, 1 ; tOption

; 115  :       testFile = lpszParam+1;

  00030	8b 4d 08	 mov	 ecx, DWORD PTR _lpszParam$[ebp]
  00033	83 c1 01	 add	 ecx, 1
  00036	8b f4		 mov	 esi, esp
  00038	51		 push	 ecx
  00039	b9 00 00 00 00	 mov	 ecx, OFFSET ?testFile@@3V?$CStringT@DV?$StrTraitMFC_DLL@DV?$ChTraitsCRT@D@ATL@@@@@ATL@@A ; testFile
  0003e	ff 15 00 00 00
	00		 call	 DWORD PTR __imp_??4?$CStringT@DV?$StrTraitMFC_DLL@DV?$ChTraitsCRT@D@ATL@@@@@ATL@@QAEAAV01@PBD@Z
  00044	3b f4		 cmp	 esi, esp
  00046	e8 00 00 00 00	 call	 __RTC_CheckEsp

; 116  :       return;

  0004b	eb 1d		 jmp	 SHORT $LN1@ParseParam
$LN3@ParseParam:

; 117  :     };
; 118  :     MessageBox(NULL,"Unknown Command Parameter"," error",MB_OK);

  0004d	8b f4		 mov	 esi, esp
  0004f	6a 00		 push	 0
  00051	68 00 00 00 00	 push	 OFFSET $SG226144
  00056	68 00 00 00 00	 push	 OFFSET $SG226145
  0005b	6a 00		 push	 0
  0005d	ff 15 00 00 00
	00		 call	 DWORD PTR __imp__MessageBoxA@16
  00063	3b f4		 cmp	 esi, esp
  00065	e8 00 00 00 00	 call	 __RTC_CheckEsp
$LN1@ParseParam:

; 119  :     return;
; 120  :   };
; 121  : };

  0006a	5e		 pop	 esi
  0006b	83 c4 04	 add	 esp, 4
  0006e	3b ec		 cmp	 ebp, esp
  00070	e8 00 00 00 00	 call	 __RTC_CheckEsp
  00075	8b e5		 mov	 esp, ebp
  00077	5d		 pop	 ebp
  00078	c2 0c 00	 ret	 12			; 0000000cH
?ParseParam@CBoxesCommandLineInfo@@EAEXPBDHH@Z ENDP	; CBoxesCommandLineInfo::ParseParam
_TEXT	ENDS
; Function compile flags: /Odtp /RTCsu
;	COMDAT ??_GCNewBoxesApp@@UAEPAXI@Z
_TEXT	SEGMENT
_this$ = -4						; size = 4
___flags$ = 8						; size = 4
??_GCNewBoxesApp@@UAEPAXI@Z PROC			; CNewBoxesApp::`scalar deleting destructor', COMDAT
; _this$ = ecx
  00000	55		 push	 ebp
  00001	8b ec		 mov	 ebp, esp
  00003	51		 push	 ecx
  00004	c7 45 fc cc cc
	cc cc		 mov	 DWORD PTR [ebp-4], -858993460 ; ccccccccH
  0000b	89 4d fc	 mov	 DWORD PTR _this$[ebp], ecx
  0000e	8b 4d fc	 mov	 ecx, DWORD PTR _this$[ebp]
  00011	e8 00 00 00 00	 call	 ??1CNewBoxesApp@@UAE@XZ
  00016	8b 45 08	 mov	 eax, DWORD PTR ___flags$[ebp]
  00019	83 e0 01	 and	 eax, 1
  0001c	74 24		 je	 SHORT $LN2@scalar
  0001e	8b 4d 08	 mov	 ecx, DWORD PTR ___flags$[ebp]
  00021	83 e1 04	 and	 ecx, 4
  00024	75 0b		 jne	 SHORT $LN3@scalar
  00026	8b 55 fc	 mov	 edx, DWORD PTR _this$[ebp]
  00029	52		 push	 edx
  0002a	e8 00 00 00 00	 call	 ??3CObject@@SGXPAX@Z	; CObject::operator delete
  0002f	eb 11		 jmp	 SHORT $LN2@scalar
$LN3@scalar:
  00031	68 cc 00 00 00	 push	 204			; 000000ccH
  00036	8b 45 fc	 mov	 eax, DWORD PTR _this$[ebp]
  00039	50		 push	 eax
  0003a	e8 00 00 00 00	 call	 ?__global_delete@@YAXPAXI@Z ; __global_delete
  0003f	83 c4 08	 add	 esp, 8
$LN2@scalar:
  00042	8b 45 fc	 mov	 eax, DWORD PTR _this$[ebp]
  00045	83 c4 04	 add	 esp, 4
  00048	3b ec		 cmp	 ebp, esp
  0004a	e8 00 00 00 00	 call	 __RTC_CheckEsp
  0004f	8b e5		 mov	 esp, ebp
  00051	5d		 pop	 ebp
  00052	c2 04 00	 ret	 4
??_GCNewBoxesApp@@UAEPAXI@Z ENDP			; CNewBoxesApp::`scalar deleting destructor'
_TEXT	ENDS
; Function compile flags: /Odtp /RTCsu
;	COMDAT ??1CNewBoxesApp@@UAE@XZ
_TEXT	SEGMENT
_this$ = -4						; size = 4
??1CNewBoxesApp@@UAE@XZ PROC				; CNewBoxesApp::~CNewBoxesApp, COMDAT
; _this$ = ecx
  00000	55		 push	 ebp
  00001	8b ec		 mov	 ebp, esp
  00003	51		 push	 ecx
  00004	c7 45 fc cc cc
	cc cc		 mov	 DWORD PTR [ebp-4], -858993460 ; ccccccccH
  0000b	89 4d fc	 mov	 DWORD PTR _this$[ebp], ecx
  0000e	8b 4d fc	 mov	 ecx, DWORD PTR _this$[ebp]
  00011	e8 00 00 00 00	 call	 ??1CWinApp@@UAE@XZ	; CWinApp::~CWinApp
  00016	83 c4 04	 add	 esp, 4
  00019	3b ec		 cmp	 ebp, esp
  0001b	e8 00 00 00 00	 call	 __RTC_CheckEsp
  00020	8b e5		 mov	 esp, ebp
  00022	5d		 pop	 ebp
  00023	c3		 ret	 0
??1CNewBoxesApp@@UAE@XZ ENDP				; CNewBoxesApp::~CNewBoxesApp
_TEXT	ENDS
; Function compile flags: /Odtp /RTCsu
; File C:\Users\15485\Desktop\工程之星点格棋\工程之星点格棋\NewBoxes.cpp
_TEXT	SEGMENT
_this$ = -4						; size = 4
?GetMessageMap@CNewBoxesApp@@MBEPBUAFX_MSGMAP@@XZ PROC	; CNewBoxesApp::GetMessageMap
; _this$ = ecx

; 28   : BEGIN_MESSAGE_MAP(CNewBoxesApp, CWinApp)

  00000	55		 push	 ebp
  00001	8b ec		 mov	 ebp, esp
  00003	51		 push	 ecx
  00004	c7 45 fc cc cc
	cc cc		 mov	 DWORD PTR [ebp-4], -858993460 ; ccccccccH
  0000b	89 4d fc	 mov	 DWORD PTR _this$[ebp], ecx
  0000e	e8 00 00 00 00	 call	 ?GetThisMessageMap@CNewBoxesApp@@KGPBUAFX_MSGMAP@@XZ ; CNewBoxesApp::GetThisMessageMap
  00013	83 c4 04	 add	 esp, 4
  00016	3b ec		 cmp	 ebp, esp
  00018	e8 00 00 00 00	 call	 __RTC_CheckEsp
  0001d	8b e5		 mov	 esp, ebp
  0001f	5d		 pop	 ebp
  00020	c3		 ret	 0
?GetMessageMap@CNewBoxesApp@@MBEPBUAFX_MSGMAP@@XZ ENDP	; CNewBoxesApp::GetMessageMap
_TEXT	ENDS
; Function compile flags: /Odtp /RTCsu
; File C:\Users\15485\Desktop\工程之星点格棋\工程之星点格棋\NewBoxes.cpp
_TEXT	SEGMENT
?GetThisMessageMap@CNewBoxesApp@@KGPBUAFX_MSGMAP@@XZ PROC ; CNewBoxesApp::GetThisMessageMap

; 28   : BEGIN_MESSAGE_MAP(CNewBoxesApp, CWinApp)

  00000	55		 push	 ebp
  00001	8b ec		 mov	 ebp, esp

; 29   : 	//{{AFX_MSG_MAP(CNewBoxesApp)
; 30   : 	ON_COMMAND(ID_APP_ABOUT, OnAppAbout)
; 31   : 	//}}AFX_MSG_MAP
; 32   : 	// Standard file based document commands
; 33   : 	ON_COMMAND(ID_FILE_NEW, CWinApp::OnFileNew)
; 34   : 	ON_COMMAND(ID_FILE_OPEN, CWinApp::OnFileOpen)
; 35   : 	// Standard print setup command
; 36   : 	ON_COMMAND(ID_FILE_PRINT_SETUP, CWinApp::OnFilePrintSetup)
; 37   : END_MESSAGE_MAP()

  00003	b8 00 00 00 00	 mov	 eax, OFFSET ?messageMap@?1??GetThisMessageMap@CNewBoxesApp@@KGPBUAFX_MSGMAP@@XZ@4U3@B
  00008	5d		 pop	 ebp
  00009	c3		 ret	 0
?GetThisMessageMap@CNewBoxesApp@@KGPBUAFX_MSGMAP@@XZ ENDP ; CNewBoxesApp::GetThisMessageMap
_TEXT	ENDS
; Function compile flags: /Odtp /RTCsu
; File C:\Users\15485\Desktop\工程之星点格棋\工程之星点格棋\NewBoxes.cpp
_TEXT	SEGMENT
_aboutDlg$ = -188					; size = 168
_this$ = -16						; size = 4
__$EHRec$ = -12						; size = 12
?OnAppAbout@CNewBoxesApp@@QAEXXZ PROC			; CNewBoxesApp::OnAppAbout
; _this$ = ecx

; 172  : {

  00000	55		 push	 ebp
  00001	8b ec		 mov	 ebp, esp
  00003	6a ff		 push	 -1
  00005	68 00 00 00 00	 push	 __ehhandler$?OnAppAbout@CNewBoxesApp@@QAEXXZ
  0000a	64 a1 00 00 00
	00		 mov	 eax, DWORD PTR fs:0
  00010	50		 push	 eax
  00011	81 ec b4 00 00
	00		 sub	 esp, 180		; 000000b4H
  00017	57		 push	 edi
  00018	51		 push	 ecx
  00019	8d bd 40 ff ff
	ff		 lea	 edi, DWORD PTR [ebp-192]
  0001f	b9 2d 00 00 00	 mov	 ecx, 45			; 0000002dH
  00024	b8 cc cc cc cc	 mov	 eax, -858993460		; ccccccccH
  00029	f3 ab		 rep stosd
  0002b	59		 pop	 ecx
  0002c	a1 00 00 00 00	 mov	 eax, DWORD PTR ___security_cookie
  00031	33 c5		 xor	 eax, ebp
  00033	50		 push	 eax
  00034	8d 45 f4	 lea	 eax, DWORD PTR __$EHRec$[ebp]
  00037	64 a3 00 00 00
	00		 mov	 DWORD PTR fs:0, eax
  0003d	89 4d f0	 mov	 DWORD PTR _this$[ebp], ecx

; 173  : 	CAboutDlg aboutDlg;

  00040	8d 8d 44 ff ff
	ff		 lea	 ecx, DWORD PTR _aboutDlg$[ebp]
  00046	e8 00 00 00 00	 call	 ??0CAboutDlg@@QAE@XZ	; CAboutDlg::CAboutDlg
  0004b	c7 45 fc 00 00
	00 00		 mov	 DWORD PTR __$EHRec$[ebp+8], 0

; 174  : 	aboutDlg.DoModal();

  00052	8d 8d 44 ff ff
	ff		 lea	 ecx, DWORD PTR _aboutDlg$[ebp]
  00058	e8 00 00 00 00	 call	 ?DoModal@CDialog@@UAEHXZ ; CDialog::DoModal

; 175  : }

  0005d	c7 45 fc ff ff
	ff ff		 mov	 DWORD PTR __$EHRec$[ebp+8], -1
  00064	8d 8d 44 ff ff
	ff		 lea	 ecx, DWORD PTR _aboutDlg$[ebp]
  0006a	e8 00 00 00 00	 call	 ??1CAboutDlg@@UAE@XZ
  0006f	52		 push	 edx
  00070	8b cd		 mov	 ecx, ebp
  00072	50		 push	 eax
  00073	8d 15 00 00 00
	00		 lea	 edx, DWORD PTR $LN7@OnAppAbout
  00079	e8 00 00 00 00	 call	 @_RTC_CheckStackVars@8
  0007e	58		 pop	 eax
  0007f	5a		 pop	 edx
  00080	8b 4d f4	 mov	 ecx, DWORD PTR __$EHRec$[ebp]
  00083	64 89 0d 00 00
	00 00		 mov	 DWORD PTR fs:0, ecx
  0008a	59		 pop	 ecx
  0008b	5f		 pop	 edi
  0008c	81 c4 c0 00 00
	00		 add	 esp, 192		; 000000c0H
  00092	3b ec		 cmp	 ebp, esp
  00094	e8 00 00 00 00	 call	 __RTC_CheckEsp
  00099	8b e5		 mov	 esp, ebp
  0009b	5d		 pop	 ebp
  0009c	c3		 ret	 0
  0009d	0f 1f 00	 npad	 3
$LN7@OnAppAbout:
  000a0	01 00 00 00	 DD	 1
  000a4	00 00 00 00	 DD	 $LN6@OnAppAbout
$LN6@OnAppAbout:
  000a8	44 ff ff ff	 DD	 -188			; ffffff44H
  000ac	a8 00 00 00	 DD	 168			; 000000a8H
  000b0	00 00 00 00	 DD	 $LN4@OnAppAbout
$LN4@OnAppAbout:
  000b4	61		 DB	 97			; 00000061H
  000b5	62		 DB	 98			; 00000062H
  000b6	6f		 DB	 111			; 0000006fH
  000b7	75		 DB	 117			; 00000075H
  000b8	74		 DB	 116			; 00000074H
  000b9	44		 DB	 68			; 00000044H
  000ba	6c		 DB	 108			; 0000006cH
  000bb	67		 DB	 103			; 00000067H
  000bc	00		 DB	 0
_TEXT	ENDS
text$x	SEGMENT
__unwindfunclet$?OnAppAbout@CNewBoxesApp@@QAEXXZ$0:
  00000	8d 8d 44 ff ff
	ff		 lea	 ecx, DWORD PTR _aboutDlg$[ebp]
  00006	e9 00 00 00 00	 jmp	 ??1CAboutDlg@@UAE@XZ
  0000b	cc		 int	 3
  0000c	cc		 int	 3
  0000d	cc		 int	 3
  0000e	cc		 int	 3
  0000f	cc		 int	 3
__ehhandler$?OnAppAbout@CNewBoxesApp@@QAEXXZ:
  00010	90		 npad	 1
  00011	90		 npad	 1
  00012	8b 54 24 08	 mov	 edx, DWORD PTR [esp+8]
  00016	8d 42 0c	 lea	 eax, DWORD PTR [edx+12]
  00019	8b 8a 44 ff ff
	ff		 mov	 ecx, DWORD PTR [edx-188]
  0001f	33 c8		 xor	 ecx, eax
  00021	e8 00 00 00 00	 call	 @__security_check_cookie@4
  00026	b8 00 00 00 00	 mov	 eax, OFFSET __ehfuncinfo$?OnAppAbout@CNewBoxesApp@@QAEXXZ
  0002b	e9 00 00 00 00	 jmp	 ___CxxFrameHandler3
text$x	ENDS
?OnAppAbout@CNewBoxesApp@@QAEXXZ ENDP			; CNewBoxesApp::OnAppAbout
; Function compile flags: /Odtp /RTCsu
; File C:\Users\15485\Desktop\工程之星点格棋\工程之星点格棋\NewBoxes.cpp
_TEXT	SEGMENT
tv134 = -92						; size = 4
$T2 = -88						; size = 4
$T3 = -84						; size = 4
$T4 = -80						; size = 4
$T5 = -76						; size = 4
_cmdInfo$ = -68						; size = 44
_pDocTemplate$ = -20					; size = 4
_this$ = -16						; size = 4
__$EHRec$ = -12						; size = 12
?InitInstance@CNewBoxesApp@@UAEHXZ PROC			; CNewBoxesApp::InitInstance
; _this$ = ecx

; 57   : {

  00000	55		 push	 ebp
  00001	8b ec		 mov	 ebp, esp
  00003	6a ff		 push	 -1
  00005	68 00 00 00 00	 push	 __ehhandler$?InitInstance@CNewBoxesApp@@UAEHXZ
  0000a	64 a1 00 00 00
	00		 mov	 eax, DWORD PTR fs:0
  00010	50		 push	 eax
  00011	83 ec 50	 sub	 esp, 80			; 00000050H
  00014	56		 push	 esi
  00015	57		 push	 edi
  00016	51		 push	 ecx
  00017	8d 7d a4	 lea	 edi, DWORD PTR [ebp-92]
  0001a	b9 14 00 00 00	 mov	 ecx, 20			; 00000014H
  0001f	b8 cc cc cc cc	 mov	 eax, -858993460		; ccccccccH
  00024	f3 ab		 rep stosd
  00026	59		 pop	 ecx
  00027	a1 00 00 00 00	 mov	 eax, DWORD PTR ___security_cookie
  0002c	33 c5		 xor	 eax, ebp
  0002e	50		 push	 eax
  0002f	8d 45 f4	 lea	 eax, DWORD PTR __$EHRec$[ebp]
  00032	64 a3 00 00 00
	00		 mov	 DWORD PTR fs:0, eax
  00038	89 4d f0	 mov	 DWORD PTR _this$[ebp], ecx

; 58   : 
; 59   : //m_pMainWnd->SetWindowText("你要显示的东西如果不想显示置空就行");
; 60   : 
; 61   : 	// Standard initialization
; 62   : 	// If you are not using these features and wish to reduce the size
; 63   : 	//  of your final executable, you should remove from the following
; 64   : 	//  the specific initialization routines you do not need.
; 65   : 
; 66   : #ifdef _AFXDLL
; 67   : 	Enable3dControls();			// Call this when using MFC in a shared DLL

  0003b	8b 4d f0	 mov	 ecx, DWORD PTR _this$[ebp]
  0003e	e8 00 00 00 00	 call	 ?Enable3dControls@CWinApp@@IAEHXZ ; CWinApp::Enable3dControls

; 68   : #else
; 69   : 	Enable3dControlsStatic();	// Call this when linking to MFC statically
; 70   : #endif
; 71   : 
; 72   : 	// Change the registry key under which our settings are stored.
; 73   : 	// TODO: You should modify this string to be something appropriate
; 74   : 	// such as the name of your company or organization.
; 75   : 	SetRegistryKey(_T("Local AppWizard-Generated Applications"));

  00043	68 00 00 00 00	 push	 OFFSET $SG226119
  00048	8b 4d f0	 mov	 ecx, DWORD PTR _this$[ebp]
  0004b	e8 00 00 00 00	 call	 ?SetRegistryKey@CWinApp@@IAEXPBD@Z ; CWinApp::SetRegistryKey

; 76   : 
; 77   : 	LoadStdProfileSettings();  // Load standard INI file options (including MRU)

  00050	6a 04		 push	 4
  00052	8b 4d f0	 mov	 ecx, DWORD PTR _this$[ebp]
  00055	e8 00 00 00 00	 call	 ?LoadStdProfileSettings@CWinApp@@IAEXI@Z ; CWinApp::LoadStdProfileSettings

; 78   : 
; 79   : 	// Register the application's document templates.  Document templates
; 80   : 	//  serve as the connection between documents, frame windows and views.
; 81   : 
; 82   : 	CSingleDocTemplate* pDocTemplate;
; 83   : 	pDocTemplate = new CSingleDocTemplate(

  0005a	6a 53		 push	 83			; 00000053H
  0005c	68 00 00 00 00	 push	 OFFSET ?THIS_FILE@@3PADA
  00061	68 8c 00 00 00	 push	 140			; 0000008cH
  00066	e8 00 00 00 00	 call	 ??2CObject@@SGPAXIPBDH@Z ; CObject::operator new
  0006b	89 45 b0	 mov	 DWORD PTR $T4[ebp], eax
  0006e	c7 45 fc 00 00
	00 00		 mov	 DWORD PTR __$EHRec$[ebp+8], 0
  00075	83 7d b0 00	 cmp	 DWORD PTR $T4[ebp], 0
  00079	74 24		 je	 SHORT $LN4@InitInstan
  0007b	e8 00 00 00 00	 call	 ?GetThisClass@CNewBoxesView@@SGPAUCRuntimeClass@@XZ ; CNewBoxesView::GetThisClass
  00080	50		 push	 eax
  00081	e8 00 00 00 00	 call	 ?GetThisClass@CMainFrame@@SGPAUCRuntimeClass@@XZ ; CMainFrame::GetThisClass
  00086	50		 push	 eax
  00087	e8 00 00 00 00	 call	 ?GetThisClass@CNewBoxesDoc@@SGPAUCRuntimeClass@@XZ ; CNewBoxesDoc::GetThisClass
  0008c	50		 push	 eax
  0008d	68 80 00 00 00	 push	 128			; 00000080H
  00092	8b 4d b0	 mov	 ecx, DWORD PTR $T4[ebp]
  00095	e8 00 00 00 00	 call	 ??0CSingleDocTemplate@@QAE@IPAUCRuntimeClass@@00@Z ; CSingleDocTemplate::CSingleDocTemplate
  0009a	89 45 a4	 mov	 DWORD PTR tv134[ebp], eax
  0009d	eb 07		 jmp	 SHORT $LN5@InitInstan
$LN4@InitInstan:
  0009f	c7 45 a4 00 00
	00 00		 mov	 DWORD PTR tv134[ebp], 0
$LN5@InitInstan:
  000a6	8b 45 a4	 mov	 eax, DWORD PTR tv134[ebp]
  000a9	89 45 b4	 mov	 DWORD PTR $T5[ebp], eax
  000ac	c7 45 fc ff ff
	ff ff		 mov	 DWORD PTR __$EHRec$[ebp+8], -1
  000b3	8b 4d b4	 mov	 ecx, DWORD PTR $T5[ebp]
  000b6	89 4d ec	 mov	 DWORD PTR _pDocTemplate$[ebp], ecx

; 84   : 		IDR_MAINFRAME,
; 85   : 		RUNTIME_CLASS(CNewBoxesDoc),
; 86   : 		RUNTIME_CLASS(CMainFrame),       // main SDI frame window
; 87   : 		RUNTIME_CLASS(CNewBoxesView));
; 88   : 	AddDocTemplate(pDocTemplate);

  000b9	8b 55 ec	 mov	 edx, DWORD PTR _pDocTemplate$[ebp]
  000bc	52		 push	 edx
  000bd	8b 4d f0	 mov	 ecx, DWORD PTR _this$[ebp]
  000c0	e8 00 00 00 00	 call	 ?AddDocTemplate@CWinApp@@QAEXPAVCDocTemplate@@@Z ; CWinApp::AddDocTemplate

; 89   : 
; 90   : 	// Parse command line for standard shell commands, DDE, file open
; 91   : 	CBoxesCommandLineInfo cmdInfo;

  000c5	8d 4d bc	 lea	 ecx, DWORD PTR _cmdInfo$[ebp]
  000c8	e8 00 00 00 00	 call	 ??0CBoxesCommandLineInfo@@QAE@XZ
  000cd	c7 45 fc 01 00
	00 00		 mov	 DWORD PTR __$EHRec$[ebp+8], 1

; 92   :   tOption = false;

  000d4	c6 05 00 00 00
	00 00		 mov	 BYTE PTR ?tOption@@3_NA, 0 ; tOption

; 93   :   testFile = "";

  000db	8b f4		 mov	 esi, esp
  000dd	68 00 00 00 00	 push	 OFFSET $SG226121
  000e2	b9 00 00 00 00	 mov	 ecx, OFFSET ?testFile@@3V?$CStringT@DV?$StrTraitMFC_DLL@DV?$ChTraitsCRT@D@ATL@@@@@ATL@@A ; testFile
  000e7	ff 15 00 00 00
	00		 call	 DWORD PTR __imp_??4?$CStringT@DV?$StrTraitMFC_DLL@DV?$ChTraitsCRT@D@ATL@@@@@ATL@@QAEAAV01@PBD@Z
  000ed	3b f4		 cmp	 esi, esp
  000ef	e8 00 00 00 00	 call	 __RTC_CheckEsp

; 94   : 	ParseCommandLine(cmdInfo);

  000f4	8d 45 bc	 lea	 eax, DWORD PTR _cmdInfo$[ebp]
  000f7	50		 push	 eax
  000f8	8b 4d f0	 mov	 ecx, DWORD PTR _this$[ebp]
  000fb	e8 00 00 00 00	 call	 ?ParseCommandLine@CWinApp@@QAEXAAVCCommandLineInfo@@@Z ; CWinApp::ParseCommandLine

; 95   : 
; 96   : 	// Dispatch commands specified on the command line
; 97   : 	if (!ProcessShellCommand(cmdInfo))

  00100	8d 4d bc	 lea	 ecx, DWORD PTR _cmdInfo$[ebp]
  00103	51		 push	 ecx
  00104	8b 4d f0	 mov	 ecx, DWORD PTR _this$[ebp]
  00107	e8 00 00 00 00	 call	 ?ProcessShellCommand@CWinApp@@QAEHAAVCCommandLineInfo@@@Z ; CWinApp::ProcessShellCommand
  0010c	85 c0		 test	 eax, eax
  0010e	75 1b		 jne	 SHORT $LN2@InitInstan

; 98   : 		return FALSE;

  00110	c7 45 ac 00 00
	00 00		 mov	 DWORD PTR $T3[ebp], 0
  00117	c7 45 fc ff ff
	ff ff		 mov	 DWORD PTR __$EHRec$[ebp+8], -1
  0011e	8d 4d bc	 lea	 ecx, DWORD PTR _cmdInfo$[ebp]
  00121	e8 00 00 00 00	 call	 ??1CBoxesCommandLineInfo@@UAE@XZ
  00126	8b 45 ac	 mov	 eax, DWORD PTR $T3[ebp]
  00129	eb 31		 jmp	 SHORT $LN1@InitInstan
$LN2@InitInstan:

; 99   : 
; 100  : 	// The one and only window has been initialized, so show and update it.
; 101  : 	m_pMainWnd->ShowWindow(SW_SHOW);

  0012b	6a 05		 push	 5
  0012d	8b 55 f0	 mov	 edx, DWORD PTR _this$[ebp]
  00130	8b 4a 20	 mov	 ecx, DWORD PTR [edx+32]
  00133	e8 00 00 00 00	 call	 ?ShowWindow@CWnd@@QAEHH@Z ; CWnd::ShowWindow

; 102  : 	m_pMainWnd->UpdateWindow();

  00138	8b 45 f0	 mov	 eax, DWORD PTR _this$[ebp]
  0013b	8b 48 20	 mov	 ecx, DWORD PTR [eax+32]
  0013e	e8 00 00 00 00	 call	 ?UpdateWindow@CWnd@@QAEXXZ ; CWnd::UpdateWindow

; 103  : 
; 104  : 	return TRUE;

  00143	c7 45 a8 01 00
	00 00		 mov	 DWORD PTR $T2[ebp], 1
  0014a	c7 45 fc ff ff
	ff ff		 mov	 DWORD PTR __$EHRec$[ebp+8], -1
  00151	8d 4d bc	 lea	 ecx, DWORD PTR _cmdInfo$[ebp]
  00154	e8 00 00 00 00	 call	 ??1CBoxesCommandLineInfo@@UAE@XZ
  00159	8b 45 a8	 mov	 eax, DWORD PTR $T2[ebp]
$LN1@InitInstan:

; 105  : }

  0015c	52		 push	 edx
  0015d	8b cd		 mov	 ecx, ebp
  0015f	50		 push	 eax
  00160	8d 15 00 00 00
	00		 lea	 edx, DWORD PTR $LN11@InitInstan
  00166	e8 00 00 00 00	 call	 @_RTC_CheckStackVars@8
  0016b	58		 pop	 eax
  0016c	5a		 pop	 edx
  0016d	8b 4d f4	 mov	 ecx, DWORD PTR __$EHRec$[ebp]
  00170	64 89 0d 00 00
	00 00		 mov	 DWORD PTR fs:0, ecx
  00177	59		 pop	 ecx
  00178	5f		 pop	 edi
  00179	5e		 pop	 esi
  0017a	83 c4 5c	 add	 esp, 92			; 0000005cH
  0017d	3b ec		 cmp	 ebp, esp
  0017f	e8 00 00 00 00	 call	 __RTC_CheckEsp
  00184	8b e5		 mov	 esp, ebp
  00186	5d		 pop	 ebp
  00187	c3		 ret	 0
$LN11@InitInstan:
  00188	01 00 00 00	 DD	 1
  0018c	00 00 00 00	 DD	 $LN10@InitInstan
$LN10@InitInstan:
  00190	bc ff ff ff	 DD	 -68			; ffffffbcH
  00194	2c 00 00 00	 DD	 44			; 0000002cH
  00198	00 00 00 00	 DD	 $LN8@InitInstan
$LN8@InitInstan:
  0019c	63		 DB	 99			; 00000063H
  0019d	6d		 DB	 109			; 0000006dH
  0019e	64		 DB	 100			; 00000064H
  0019f	49		 DB	 73			; 00000049H
  001a0	6e		 DB	 110			; 0000006eH
  001a1	66		 DB	 102			; 00000066H
  001a2	6f		 DB	 111			; 0000006fH
  001a3	00		 DB	 0
_TEXT	ENDS
text$x	SEGMENT
__unwindfunclet$?InitInstance@CNewBoxesApp@@UAEHXZ$0:
  00000	6a 53		 push	 83			; 00000053H
  00002	68 00 00 00 00	 push	 OFFSET ?THIS_FILE@@3PADA
  00007	8b 45 b0	 mov	 eax, DWORD PTR $T4[ebp]
  0000a	50		 push	 eax
  0000b	e8 00 00 00 00	 call	 ??3CObject@@SGXPAXPBDH@Z ; CObject::operator delete
  00010	c3		 ret	 0
__unwindfunclet$?InitInstance@CNewBoxesApp@@UAEHXZ$1:
  00011	8d 4d bc	 lea	 ecx, DWORD PTR _cmdInfo$[ebp]
  00014	e9 00 00 00 00	 jmp	 ??1CBoxesCommandLineInfo@@UAE@XZ
  00019	cc		 int	 3
  0001a	cc		 int	 3
  0001b	cc		 int	 3
  0001c	cc		 int	 3
  0001d	cc		 int	 3
__ehhandler$?InitInstance@CNewBoxesApp@@UAEHXZ:
  0001e	90		 npad	 1
  0001f	90		 npad	 1
  00020	8b 54 24 08	 mov	 edx, DWORD PTR [esp+8]
  00024	8d 42 0c	 lea	 eax, DWORD PTR [edx+12]
  00027	8b 4a a4	 mov	 ecx, DWORD PTR [edx-92]
  0002a	33 c8		 xor	 ecx, eax
  0002c	e8 00 00 00 00	 call	 @__security_check_cookie@4
  00031	b8 00 00 00 00	 mov	 eax, OFFSET __ehfuncinfo$?InitInstance@CNewBoxesApp@@UAEHXZ
  00036	e9 00 00 00 00	 jmp	 ___CxxFrameHandler3
text$x	ENDS
?InitInstance@CNewBoxesApp@@UAEHXZ ENDP			; CNewBoxesApp::InitInstance
; Function compile flags: /Odtp /RTCsu
; File C:\Users\15485\Desktop\工程之星点格棋\工程之星点格棋\NewBoxes.cpp
_TEXT	SEGMENT
_this$ = -4						; size = 4
??0CNewBoxesApp@@QAE@XZ PROC				; CNewBoxesApp::CNewBoxesApp
; _this$ = ecx

; 43   : {

  00000	55		 push	 ebp
  00001	8b ec		 mov	 ebp, esp
  00003	51		 push	 ecx
  00004	c7 45 fc cc cc
	cc cc		 mov	 DWORD PTR [ebp-4], -858993460 ; ccccccccH
  0000b	89 4d fc	 mov	 DWORD PTR _this$[ebp], ecx
  0000e	6a 00		 push	 0
  00010	8b 4d fc	 mov	 ecx, DWORD PTR _this$[ebp]
  00013	e8 00 00 00 00	 call	 ??0CWinApp@@QAE@PBD@Z	; CWinApp::CWinApp
  00018	8b 45 fc	 mov	 eax, DWORD PTR _this$[ebp]
  0001b	c7 00 00 00 00
	00		 mov	 DWORD PTR [eax], OFFSET ??_7CNewBoxesApp@@6B@

; 44   : 	// TODO: add construction code here,
; 45   : 	// Place all significant initialization in InitInstance
; 46   : }

  00021	8b 45 fc	 mov	 eax, DWORD PTR _this$[ebp]
  00024	83 c4 04	 add	 esp, 4
  00027	3b ec		 cmp	 ebp, esp
  00029	e8 00 00 00 00	 call	 __RTC_CheckEsp
  0002e	8b e5		 mov	 esp, ebp
  00030	5d		 pop	 ebp
  00031	c3		 ret	 0
??0CNewBoxesApp@@QAE@XZ ENDP				; CNewBoxesApp::CNewBoxesApp
_TEXT	ENDS
; Function compile flags: /Odtp /RTCsu
; File G:\Microsoft Visual Studio\2022\Community\VC\Tools\MSVC\14.35.32215\atlmfc\include\afxwin.h
;	COMDAT ?GetApplicationRecoveryPingInterval@CWinApp@@UAEKXZ
_TEXT	SEGMENT
_this$ = -4						; size = 4
?GetApplicationRecoveryPingInterval@CWinApp@@UAEKXZ PROC ; CWinApp::GetApplicationRecoveryPingInterval, COMDAT
; _this$ = ecx

; 5370 : 	virtual DWORD GetApplicationRecoveryPingInterval() { return RECOVERY_DEFAULT_PING_INTERVAL; }  // Ping interval for RegisterApplicationRecoveryCallback

  00000	55		 push	 ebp
  00001	8b ec		 mov	 ebp, esp
  00003	51		 push	 ecx
  00004	89 4d fc	 mov	 DWORD PTR _this$[ebp], ecx
  00007	b8 88 13 00 00	 mov	 eax, 5000		; 00001388H
  0000c	8b e5		 mov	 esp, ebp
  0000e	5d		 pop	 ebp
  0000f	c3		 ret	 0
?GetApplicationRecoveryPingInterval@CWinApp@@UAEKXZ ENDP ; CWinApp::GetApplicationRecoveryPingInterval
_TEXT	ENDS
; Function compile flags: /Odtp /RTCsu
; File G:\Microsoft Visual Studio\2022\Community\VC\Tools\MSVC\14.35.32215\atlmfc\include\afxwin.h
;	COMDAT ?GetApplicationRecoveryParameter@CWinApp@@UAEPAXXZ
_TEXT	SEGMENT
_this$ = -4						; size = 4
?GetApplicationRecoveryParameter@CWinApp@@UAEPAXXZ PROC	; CWinApp::GetApplicationRecoveryParameter, COMDAT
; _this$ = ecx

; 5369 : 	virtual LPVOID GetApplicationRecoveryParameter() { return NULL; }  // Parameter to be passed along to RegisterApplicationRecoveryCallback

  00000	55		 push	 ebp
  00001	8b ec		 mov	 ebp, esp
  00003	51		 push	 ecx
  00004	89 4d fc	 mov	 DWORD PTR _this$[ebp], ecx
  00007	33 c0		 xor	 eax, eax
  00009	8b e5		 mov	 esp, ebp
  0000b	5d		 pop	 ebp
  0000c	c3		 ret	 0
?GetApplicationRecoveryParameter@CWinApp@@UAEPAXXZ ENDP	; CWinApp::GetApplicationRecoveryParameter
_TEXT	ENDS
; Function compile flags: /Odtp /RTCsu
; File G:\Microsoft Visual Studio\2022\Community\VC\Tools\MSVC\14.35.32215\atlmfc\include\afxwin.h
;	COMDAT ?GetApplicationRestartFlags@CWinApp@@UAEKXZ
_TEXT	SEGMENT
_this$ = -4						; size = 4
?GetApplicationRestartFlags@CWinApp@@UAEKXZ PROC	; CWinApp::GetApplicationRestartFlags, COMDAT
; _this$ = ecx

; 5368 : 	virtual DWORD GetApplicationRestartFlags() { return 0; }  // Flags for RegisterApplicationRestart: default is none of RESTART_NO_CRASH/RESTART_NO_HANG/RESTART_NO_PATCH/RESTART_NO_REBOOT

  00000	55		 push	 ebp
  00001	8b ec		 mov	 ebp, esp
  00003	51		 push	 ecx
  00004	89 4d fc	 mov	 DWORD PTR _this$[ebp], ecx
  00007	33 c0		 xor	 eax, eax
  00009	8b e5		 mov	 esp, ebp
  0000b	5d		 pop	 ebp
  0000c	c3		 ret	 0
?GetApplicationRestartFlags@CWinApp@@UAEKXZ ENDP	; CWinApp::GetApplicationRestartFlags
_TEXT	ENDS
; Function compile flags: /Odtp /RTCsu
; File G:\Microsoft Visual Studio\2022\Community\VC\Tools\MSVC\14.35.32215\atlmfc\include\afxwin.h
;	COMDAT ?RestoreAutosavedFilesAtRestart@CWinApp@@UBEHXZ
_TEXT	SEGMENT
_this$ = -4						; size = 4
?RestoreAutosavedFilesAtRestart@CWinApp@@UBEHXZ PROC	; CWinApp::RestoreAutosavedFilesAtRestart, COMDAT
; _this$ = ecx

; 5366 : 	virtual BOOL RestoreAutosavedFilesAtRestart() const { return m_dwRestartManagerSupportFlags & AFX_RESTART_MANAGER_RESTORE_AUTOSAVED_FILES; }

  00000	55		 push	 ebp
  00001	8b ec		 mov	 ebp, esp
  00003	51		 push	 ecx
  00004	89 4d fc	 mov	 DWORD PTR _this$[ebp], ecx
  00007	8b 45 fc	 mov	 eax, DWORD PTR _this$[ebp]
  0000a	8b 80 ac 00 00
	00		 mov	 eax, DWORD PTR [eax+172]
  00010	83 e0 20	 and	 eax, 32			; 00000020H
  00013	8b e5		 mov	 esp, ebp
  00015	5d		 pop	 ebp
  00016	c3		 ret	 0
?RestoreAutosavedFilesAtRestart@CWinApp@@UBEHXZ ENDP	; CWinApp::RestoreAutosavedFilesAtRestart
_TEXT	ENDS
; Function compile flags: /Odtp /RTCsu
; File G:\Microsoft Visual Studio\2022\Community\VC\Tools\MSVC\14.35.32215\atlmfc\include\afxwin.h
;	COMDAT ?ReopenPreviousFilesAtRestart@CWinApp@@UBEHXZ
_TEXT	SEGMENT
_this$ = -4						; size = 4
?ReopenPreviousFilesAtRestart@CWinApp@@UBEHXZ PROC	; CWinApp::ReopenPreviousFilesAtRestart, COMDAT
; _this$ = ecx

; 5365 : 	virtual BOOL ReopenPreviousFilesAtRestart() const { return m_dwRestartManagerSupportFlags & AFX_RESTART_MANAGER_REOPEN_PREVIOUS_FILES; }

  00000	55		 push	 ebp
  00001	8b ec		 mov	 ebp, esp
  00003	51		 push	 ecx
  00004	89 4d fc	 mov	 DWORD PTR _this$[ebp], ecx
  00007	8b 45 fc	 mov	 eax, DWORD PTR _this$[ebp]
  0000a	8b 80 ac 00 00
	00		 mov	 eax, DWORD PTR [eax+172]
  00010	83 e0 10	 and	 eax, 16			; 00000010H
  00013	8b e5		 mov	 esp, ebp
  00015	5d		 pop	 ebp
  00016	c3		 ret	 0
?ReopenPreviousFilesAtRestart@CWinApp@@UBEHXZ ENDP	; CWinApp::ReopenPreviousFilesAtRestart
_TEXT	ENDS
; Function compile flags: /Odtp /RTCsu
; File G:\Microsoft Visual Studio\2022\Community\VC\Tools\MSVC\14.35.32215\atlmfc\include\afxwin.h
;	COMDAT ?SupportsAutosaveAtInterval@CWinApp@@UBEHXZ
_TEXT	SEGMENT
_this$ = -4						; size = 4
?SupportsAutosaveAtInterval@CWinApp@@UBEHXZ PROC	; CWinApp::SupportsAutosaveAtInterval, COMDAT
; _this$ = ecx

; 5364 : 	virtual BOOL SupportsAutosaveAtInterval() const { return m_dwRestartManagerSupportFlags & AFX_RESTART_MANAGER_AUTOSAVE_AT_INTERVAL; }

  00000	55		 push	 ebp
  00001	8b ec		 mov	 ebp, esp
  00003	51		 push	 ecx
  00004	89 4d fc	 mov	 DWORD PTR _this$[ebp], ecx
  00007	8b 45 fc	 mov	 eax, DWORD PTR _this$[ebp]
  0000a	8b 80 ac 00 00
	00		 mov	 eax, DWORD PTR [eax+172]
  00010	83 e0 08	 and	 eax, 8
  00013	8b e5		 mov	 esp, ebp
  00015	5d		 pop	 ebp
  00016	c3		 ret	 0
?SupportsAutosaveAtInterval@CWinApp@@UBEHXZ ENDP	; CWinApp::SupportsAutosaveAtInterval
_TEXT	ENDS
; Function compile flags: /Odtp /RTCsu
; File G:\Microsoft Visual Studio\2022\Community\VC\Tools\MSVC\14.35.32215\atlmfc\include\afxwin.h
;	COMDAT ?SupportsAutosaveAtRestart@CWinApp@@UBEHXZ
_TEXT	SEGMENT
_this$ = -4						; size = 4
?SupportsAutosaveAtRestart@CWinApp@@UBEHXZ PROC		; CWinApp::SupportsAutosaveAtRestart, COMDAT
; _this$ = ecx

; 5363 : 	virtual BOOL SupportsAutosaveAtRestart() const { return m_dwRestartManagerSupportFlags & AFX_RESTART_MANAGER_AUTOSAVE_AT_RESTART; }

  00000	55		 push	 ebp
  00001	8b ec		 mov	 ebp, esp
  00003	51		 push	 ecx
  00004	89 4d fc	 mov	 DWORD PTR _this$[ebp], ecx
  00007	8b 45 fc	 mov	 eax, DWORD PTR _this$[ebp]
  0000a	8b 80 ac 00 00
	00		 mov	 eax, DWORD PTR [eax+172]
  00010	83 e0 04	 and	 eax, 4
  00013	8b e5		 mov	 esp, ebp
  00015	5d		 pop	 ebp
  00016	c3		 ret	 0
?SupportsAutosaveAtRestart@CWinApp@@UBEHXZ ENDP		; CWinApp::SupportsAutosaveAtRestart
_TEXT	ENDS
; Function compile flags: /Odtp /RTCsu
; File G:\Microsoft Visual Studio\2022\Community\VC\Tools\MSVC\14.35.32215\atlmfc\include\afxwin.h
;	COMDAT ?SupportsApplicationRecovery@CWinApp@@UBEHXZ
_TEXT	SEGMENT
_this$ = -4						; size = 4
?SupportsApplicationRecovery@CWinApp@@UBEHXZ PROC	; CWinApp::SupportsApplicationRecovery, COMDAT
; _this$ = ecx

; 5362 : 	virtual BOOL SupportsApplicationRecovery() const { return m_dwRestartManagerSupportFlags & AFX_RESTART_MANAGER_SUPPORT_RECOVERY; }

  00000	55		 push	 ebp
  00001	8b ec		 mov	 ebp, esp
  00003	51		 push	 ecx
  00004	89 4d fc	 mov	 DWORD PTR _this$[ebp], ecx
  00007	8b 45 fc	 mov	 eax, DWORD PTR _this$[ebp]
  0000a	8b 80 ac 00 00
	00		 mov	 eax, DWORD PTR [eax+172]
  00010	83 e0 02	 and	 eax, 2
  00013	8b e5		 mov	 esp, ebp
  00015	5d		 pop	 ebp
  00016	c3		 ret	 0
?SupportsApplicationRecovery@CWinApp@@UBEHXZ ENDP	; CWinApp::SupportsApplicationRecovery
_TEXT	ENDS
; Function compile flags: /Odtp /RTCsu
; File G:\Microsoft Visual Studio\2022\Community\VC\Tools\MSVC\14.35.32215\atlmfc\include\afxwin.h
;	COMDAT ?SupportsRestartManager@CWinApp@@UBEHXZ
_TEXT	SEGMENT
_this$ = -4						; size = 4
?SupportsRestartManager@CWinApp@@UBEHXZ PROC		; CWinApp::SupportsRestartManager, COMDAT
; _this$ = ecx

; 5361 : 	virtual BOOL SupportsRestartManager() const { return m_dwRestartManagerSupportFlags & AFX_RESTART_MANAGER_SUPPORT_RESTART; }

  00000	55		 push	 ebp
  00001	8b ec		 mov	 ebp, esp
  00003	51		 push	 ecx
  00004	89 4d fc	 mov	 DWORD PTR _this$[ebp], ecx
  00007	8b 45 fc	 mov	 eax, DWORD PTR _this$[ebp]
  0000a	8b 80 ac 00 00
	00		 mov	 eax, DWORD PTR [eax+172]
  00010	83 e0 01	 and	 eax, 1
  00013	8b e5		 mov	 esp, ebp
  00015	5d		 pop	 ebp
  00016	c3		 ret	 0
?SupportsRestartManager@CWinApp@@UBEHXZ ENDP		; CWinApp::SupportsRestartManager
_TEXT	ENDS
; Function compile flags: /Odtp /RTCsu
; File G:\Microsoft Visual Studio\2022\Community\VC\Tools\MSVC\14.35.32215\atlmfc\include\atltrace.h
;	COMDAT ?RegisterCategory@CTrace@ATL@@SAXPBDI@Z
_TEXT	SEGMENT
_buffer$ = -264						; size = 256
__$ArrayPad$ = -4					; size = 4
_pszCategory$ = 8					; size = 4
_nCategory$ = 12					; size = 4
?RegisterCategory@CTrace@ATL@@SAXPBDI@Z PROC		; ATL::CTrace::RegisterCategory, COMDAT

; 329  : 	{

  00000	55		 push	 ebp
  00001	8b ec		 mov	 ebp, esp
  00003	81 ec 0c 01 00
	00		 sub	 esp, 268		; 0000010cH
  00009	56		 push	 esi
  0000a	57		 push	 edi
  0000b	8d bd f4 fe ff
	ff		 lea	 edi, DWORD PTR [ebp-268]
  00011	b9 43 00 00 00	 mov	 ecx, 67			; 00000043H
  00016	b8 cc cc cc cc	 mov	 eax, -858993460		; ccccccccH
  0001b	f3 ab		 rep stosd
  0001d	a1 00 00 00 00	 mov	 eax, DWORD PTR ___security_cookie
  00022	33 c5		 xor	 eax, ebp
  00024	89 45 fc	 mov	 DWORD PTR __$ArrayPad$[ebp], eax

; 330  : 		if (pszCategory == nullptr)

  00027	83 7d 08 00	 cmp	 DWORD PTR _pszCategory$[ebp], 0
  0002b	75 05		 jne	 SHORT $LN2@RegisterCa

; 331  : 		{
; 332  : 			return;

  0002d	e9 bb 00 00 00	 jmp	 $LN1@RegisterCa
$LN2@RegisterCa:

; 333  : 		}
; 334  : 
; 335  : 		if (m_nLastCategory >= MaxCategoryArray) 

  00032	83 3d 00 00 00
	00 20		 cmp	 DWORD PTR ?m_nLastCategory@CTrace@ATL@@1IA, 32 ; ATL::CTrace::m_nLastCategory, 00000020H
  00039	72 36		 jb	 SHORT $LN3@RegisterCa

; 336  : 		{
; 337  : 			ATLASSERT(false && "Too many categories defined");

  0003b	33 c0		 xor	 eax, eax
  0003d	75 30		 jne	 SHORT $LN5@RegisterCa
  0003f	8b f4		 mov	 esi, esp
  00041	68 00 00 00 00	 push	 OFFSET ??_C@_1EO@EBPPKGOM@?$AAf?$AAa?$AAl?$AAs?$AAe?$AA?5?$AA?$CG?$AA?$CG?$AA?5?$AA?$CC?$AAT?$AAo?$AAo?$AA?5?$AAm@
  00046	68 00 00 00 00	 push	 OFFSET ??_C@_17CNPHIMPH@?$AA?$CF?$AAl?$AAs@
  0004b	6a 00		 push	 0
  0004d	68 51 01 00 00	 push	 337			; 00000151H
  00052	68 00 00 00 00	 push	 OFFSET ??_C@_1LM@KONDCONO@?$AAG?$AA?3?$AA?2?$AAM?$AAi?$AAc?$AAr?$AAo?$AAs?$AAo?$AAf?$AAt?$AA?5?$AAV?$AAi@
  00057	6a 02		 push	 2
  00059	ff 15 00 00 00
	00		 call	 DWORD PTR __imp___CrtDbgReportW
  0005f	83 c4 18	 add	 esp, 24			; 00000018H
  00062	3b f4		 cmp	 esi, esp
  00064	e8 00 00 00 00	 call	 __RTC_CheckEsp
  00069	83 f8 01	 cmp	 eax, 1
  0006c	75 01		 jne	 SHORT $LN5@RegisterCa
  0006e	cc		 int	 3
$LN5@RegisterCa:

; 338  : 			return;

  0006f	eb 7c		 jmp	 SHORT $LN1@RegisterCa
$LN3@RegisterCa:

; 339  : 		}
; 340  : 
; 341  : 		m_nMap[m_nLastCategory].nCategory = nCategory;

  00071	69 15 00 00 00
	00 04 01 00 00	 imul	 edx, DWORD PTR ?m_nLastCategory@CTrace@ATL@@1IA, 260 ; ATL::CTrace::m_nLastCategory
  0007b	8b 45 0c	 mov	 eax, DWORD PTR _nCategory$[ebp]
  0007e	89 82 00 00 00
	00		 mov	 DWORD PTR ?m_nMap@CTrace@ATL@@1PAUCategoryMap@12@A[edx], eax

; 342  : #ifdef _UNICODE
; 343  : 		wcscpy_s(m_nMap[m_nLastCategory].categryName, MaxLengthOfCategoryName - 1, pszCategory);
; 344  : #else
; 345  : 		wchar_t buffer[MaxLengthOfCategoryName] = { 0 };	

  00084	68 00 01 00 00	 push	 256			; 00000100H
  00089	6a 00		 push	 0
  0008b	8d 8d f8 fe ff
	ff		 lea	 ecx, DWORD PTR _buffer$[ebp]
  00091	51		 push	 ecx
  00092	e8 00 00 00 00	 call	 _memset
  00097	83 c4 0c	 add	 esp, 12			; 0000000cH

; 346  : #if _MSC_VER < 1900
; 347  : 		swprintf_s(buffer, MaxLengthOfCategoryName - 1, L"%S", pszCategory);
; 348  : #else
; 349  : 		swprintf_s(buffer, MaxLengthOfCategoryName - 1, L"%hs", pszCategory);

  0009a	8b 55 08	 mov	 edx, DWORD PTR _pszCategory$[ebp]
  0009d	52		 push	 edx
  0009e	68 00 00 00 00	 push	 OFFSET ??_C@_17LGGGMOOB@?$AA?$CF?$AAh?$AAs@
  000a3	6a 7f		 push	 127			; 0000007fH
  000a5	8d 85 f8 fe ff
	ff		 lea	 eax, DWORD PTR _buffer$[ebp]
  000ab	50		 push	 eax
  000ac	e8 00 00 00 00	 call	 _swprintf_s
  000b1	83 c4 10	 add	 esp, 16			; 00000010H

; 350  : #endif
; 351  : 		wcscpy_s(m_nMap[m_nLastCategory].categryName, MaxLengthOfCategoryName - 1, buffer);

  000b4	8b f4		 mov	 esi, esp
  000b6	8d 8d f8 fe ff
	ff		 lea	 ecx, DWORD PTR _buffer$[ebp]
  000bc	51		 push	 ecx
  000bd	6a 7f		 push	 127			; 0000007fH
  000bf	69 15 00 00 00
	00 04 01 00 00	 imul	 edx, DWORD PTR ?m_nLastCategory@CTrace@ATL@@1IA, 260 ; ATL::CTrace::m_nLastCategory
  000c9	81 c2 04 00 00
	00		 add	 edx, OFFSET ?m_nMap@CTrace@ATL@@1PAUCategoryMap@12@A+4
  000cf	52		 push	 edx
  000d0	ff 15 00 00 00
	00		 call	 DWORD PTR __imp__wcscpy_s
  000d6	83 c4 0c	 add	 esp, 12			; 0000000cH
  000d9	3b f4		 cmp	 esi, esp
  000db	e8 00 00 00 00	 call	 __RTC_CheckEsp

; 352  : #endif
; 353  : 	
; 354  : 		m_nLastCategory++;

  000e0	a1 00 00 00 00	 mov	 eax, DWORD PTR ?m_nLastCategory@CTrace@ATL@@1IA ; ATL::CTrace::m_nLastCategory
  000e5	83 c0 01	 add	 eax, 1
  000e8	a3 00 00 00 00	 mov	 DWORD PTR ?m_nLastCategory@CTrace@ATL@@1IA, eax ; ATL::CTrace::m_nLastCategory
$LN1@RegisterCa:

; 355  : 	}

  000ed	52		 push	 edx
  000ee	8b cd		 mov	 ecx, ebp
  000f0	50		 push	 eax
  000f1	8d 15 00 00 00
	00		 lea	 edx, DWORD PTR $LN8@RegisterCa
  000f7	e8 00 00 00 00	 call	 @_RTC_CheckStackVars@8
  000fc	58		 pop	 eax
  000fd	5a		 pop	 edx
  000fe	5f		 pop	 edi
  000ff	5e		 pop	 esi
  00100	8b 4d fc	 mov	 ecx, DWORD PTR __$ArrayPad$[ebp]
  00103	33 cd		 xor	 ecx, ebp
  00105	e8 00 00 00 00	 call	 @__security_check_cookie@4
  0010a	81 c4 0c 01 00
	00		 add	 esp, 268		; 0000010cH
  00110	3b ec		 cmp	 ebp, esp
  00112	e8 00 00 00 00	 call	 __RTC_CheckEsp
  00117	8b e5		 mov	 esp, ebp
  00119	5d		 pop	 ebp
  0011a	c3		 ret	 0
  0011b	90		 npad	 1
$LN8@RegisterCa:
  0011c	01 00 00 00	 DD	 1
  00120	00 00 00 00	 DD	 $LN7@RegisterCa
$LN7@RegisterCa:
  00124	f8 fe ff ff	 DD	 -264			; fffffef8H
  00128	00 01 00 00	 DD	 256			; 00000100H
  0012c	00 00 00 00	 DD	 $LN6@RegisterCa
$LN6@RegisterCa:
  00130	62		 DB	 98			; 00000062H
  00131	75		 DB	 117			; 00000075H
  00132	66		 DB	 102			; 00000066H
  00133	66		 DB	 102			; 00000066H
  00134	65		 DB	 101			; 00000065H
  00135	72		 DB	 114			; 00000072H
  00136	00		 DB	 0
?RegisterCategory@CTrace@ATL@@SAXPBDI@Z ENDP		; ATL::CTrace::RegisterCategory
_TEXT	ENDS
; Function compile flags: /Odtp /RTCsu
; File G:\Microsoft Visual Studio\2022\Community\VC\Tools\MSVC\14.35.32215\atlmfc\include\atltrace.h
;	COMDAT ??__EatlTraceException@ATL@@YAXXZ
text$di	SEGMENT
??__EatlTraceException@ATL@@YAXXZ PROC			; ATL::`dynamic initializer for 'atlTraceException'', COMDAT

; 110  : __declspec(selectany) CTraceCategoryEx<CTraceCategoryEx<>::TraceException> atlTraceException(_T("atlTraceException"));

  00000	55		 push	 ebp
  00001	8b ec		 mov	 ebp, esp
  00003	68 00 00 00 00	 push	 OFFSET $SG74042
  00008	b9 00 00 00 00	 mov	 ecx, OFFSET ?atlTraceException@ATL@@3V?$CTraceCategoryEx@$0CAAA@$0A@@1@A ; ATL::atlTraceException
  0000d	e8 00 00 00 00	 call	 ??0?$CTraceCategoryEx@$0CAAA@$0A@@ATL@@QAE@PBD@Z ; ATL::CTraceCategoryEx<8192,0>::CTraceCategoryEx<8192,0>
  00012	3b ec		 cmp	 ebp, esp
  00014	e8 00 00 00 00	 call	 __RTC_CheckEsp
  00019	5d		 pop	 ebp
  0001a	c3		 ret	 0
??__EatlTraceException@ATL@@YAXXZ ENDP			; ATL::`dynamic initializer for 'atlTraceException''
text$di	ENDS
; Function compile flags: /Odtp /RTCsu
; File G:\Microsoft Visual Studio\2022\Community\VC\Tools\MSVC\14.35.32215\atlmfc\include\atltrace.h
;	COMDAT ??0?$CTraceCategoryEx@$0CAAA@$0A@@ATL@@QAE@PBD@Z
_TEXT	SEGMENT
_this$ = -4						; size = 4
_pszCategoryName$ = 8					; size = 4
??0?$CTraceCategoryEx@$0CAAA@$0A@@ATL@@QAE@PBD@Z PROC	; ATL::CTraceCategoryEx<8192,0>::CTraceCategoryEx<8192,0>, COMDAT
; _this$ = ecx

; 480  : {

  00000	55		 push	 ebp
  00001	8b ec		 mov	 ebp, esp
  00003	51		 push	 ecx
  00004	c7 45 fc cc cc
	cc cc		 mov	 DWORD PTR [ebp-4], -858993460 ; ccccccccH
  0000b	89 4d fc	 mov	 DWORD PTR _this$[ebp], ecx

; 481  : 	CTrace::RegisterCategory(pszCategoryName, traceCategory);

  0000e	68 00 20 00 00	 push	 8192			; 00002000H
  00013	8b 45 08	 mov	 eax, DWORD PTR _pszCategoryName$[ebp]
  00016	50		 push	 eax
  00017	e8 00 00 00 00	 call	 ?RegisterCategory@CTrace@ATL@@SAXPBDI@Z ; ATL::CTrace::RegisterCategory
  0001c	83 c4 08	 add	 esp, 8

; 482  : }

  0001f	8b 45 fc	 mov	 eax, DWORD PTR _this$[ebp]
  00022	83 c4 04	 add	 esp, 4
  00025	3b ec		 cmp	 ebp, esp
  00027	e8 00 00 00 00	 call	 __RTC_CheckEsp
  0002c	8b e5		 mov	 esp, ebp
  0002e	5d		 pop	 ebp
  0002f	c2 04 00	 ret	 4
??0?$CTraceCategoryEx@$0CAAA@$0A@@ATL@@QAE@PBD@Z ENDP	; ATL::CTraceCategoryEx<8192,0>::CTraceCategoryEx<8192,0>
_TEXT	ENDS
; Function compile flags: /Odtp /RTCsu
; File D:\Windows Kits\10\Include\10.0.22000.0\ucrt\corecrt_wstdio.h
;	COMDAT _swprintf_s
_TEXT	SEGMENT
__ArgList$ = -8						; size = 4
__Result$ = -4						; size = 4
__Buffer$ = 8						; size = 4
__BufferCount$ = 12					; size = 4
__Format$ = 16						; size = 4
_swprintf_s PROC					; COMDAT

; 1523 :         {

  00000	55		 push	 ebp
  00001	8b ec		 mov	 ebp, esp
  00003	83 ec 0c	 sub	 esp, 12			; 0000000cH
  00006	c7 45 f4 cc cc
	cc cc		 mov	 DWORD PTR [ebp-12], -858993460 ; ccccccccH
  0000d	c7 45 f8 cc cc
	cc cc		 mov	 DWORD PTR [ebp-8], -858993460 ; ccccccccH
  00014	c7 45 fc cc cc
	cc cc		 mov	 DWORD PTR [ebp-4], -858993460 ; ccccccccH

; 1524 :             int _Result;
; 1525 :             va_list _ArgList;
; 1526 :             __crt_va_start(_ArgList, _Format);

  0001b	8d 45 14	 lea	 eax, DWORD PTR __Format$[ebp+4]
  0001e	89 45 f8	 mov	 DWORD PTR __ArgList$[ebp], eax

; 1527 :             _Result = _vswprintf_s_l(_Buffer, _BufferCount, _Format, NULL, _ArgList);

  00021	8b 4d f8	 mov	 ecx, DWORD PTR __ArgList$[ebp]
  00024	51		 push	 ecx
  00025	6a 00		 push	 0
  00027	8b 55 10	 mov	 edx, DWORD PTR __Format$[ebp]
  0002a	52		 push	 edx
  0002b	8b 45 0c	 mov	 eax, DWORD PTR __BufferCount$[ebp]
  0002e	50		 push	 eax
  0002f	8b 4d 08	 mov	 ecx, DWORD PTR __Buffer$[ebp]
  00032	51		 push	 ecx
  00033	e8 00 00 00 00	 call	 __vswprintf_s_l
  00038	83 c4 14	 add	 esp, 20			; 00000014H
  0003b	89 45 fc	 mov	 DWORD PTR __Result$[ebp], eax

; 1528 :             __crt_va_end(_ArgList);

  0003e	c7 45 f8 00 00
	00 00		 mov	 DWORD PTR __ArgList$[ebp], 0

; 1529 :             return _Result;

  00045	8b 45 fc	 mov	 eax, DWORD PTR __Result$[ebp]

; 1530 :         }

  00048	83 c4 0c	 add	 esp, 12			; 0000000cH
  0004b	3b ec		 cmp	 ebp, esp
  0004d	e8 00 00 00 00	 call	 __RTC_CheckEsp
  00052	8b e5		 mov	 esp, ebp
  00054	5d		 pop	 ebp
  00055	c3		 ret	 0
_swprintf_s ENDP
_TEXT	ENDS
; Function compile flags: /Odtp /RTCsu
; File D:\Windows Kits\10\Include\10.0.22000.0\ucrt\corecrt_wstdio.h
;	COMDAT __vswprintf_s_l
_TEXT	SEGMENT
tv73 = -8						; size = 4
__Result$ = -4						; size = 4
__Buffer$ = 8						; size = 4
__BufferCount$ = 12					; size = 4
__Format$ = 16						; size = 4
__Locale$ = 20						; size = 4
__ArgList$ = 24						; size = 4
__vswprintf_s_l PROC					; COMDAT

; 1256 :     {

  00000	55		 push	 ebp
  00001	8b ec		 mov	 ebp, esp
  00003	83 ec 08	 sub	 esp, 8
  00006	56		 push	 esi
  00007	c7 45 f8 cc cc
	cc cc		 mov	 DWORD PTR [ebp-8], -858993460 ; ccccccccH
  0000e	c7 45 fc cc cc
	cc cc		 mov	 DWORD PTR [ebp-4], -858993460 ; ccccccccH

; 1257 :         int const _Result = __stdio_common_vswprintf_s(

  00015	8b f4		 mov	 esi, esp
  00017	8b 45 18	 mov	 eax, DWORD PTR __ArgList$[ebp]
  0001a	50		 push	 eax
  0001b	8b 4d 14	 mov	 ecx, DWORD PTR __Locale$[ebp]
  0001e	51		 push	 ecx
  0001f	8b 55 10	 mov	 edx, DWORD PTR __Format$[ebp]
  00022	52		 push	 edx
  00023	8b 45 0c	 mov	 eax, DWORD PTR __BufferCount$[ebp]
  00026	50		 push	 eax
  00027	8b 4d 08	 mov	 ecx, DWORD PTR __Buffer$[ebp]
  0002a	51		 push	 ecx
  0002b	e8 00 00 00 00	 call	 ___local_stdio_printf_options
  00030	8b 50 04	 mov	 edx, DWORD PTR [eax+4]
  00033	52		 push	 edx
  00034	8b 00		 mov	 eax, DWORD PTR [eax]
  00036	50		 push	 eax
  00037	ff 15 00 00 00
	00		 call	 DWORD PTR __imp____stdio_common_vswprintf_s
  0003d	83 c4 1c	 add	 esp, 28			; 0000001cH
  00040	3b f4		 cmp	 esi, esp
  00042	e8 00 00 00 00	 call	 __RTC_CheckEsp
  00047	89 45 fc	 mov	 DWORD PTR __Result$[ebp], eax

; 1258 :             _CRT_INTERNAL_LOCAL_PRINTF_OPTIONS,
; 1259 :             _Buffer, _BufferCount, _Format, _Locale, _ArgList);
; 1260 : 
; 1261 :         return _Result < 0 ? -1 : _Result;

  0004a	83 7d fc 00	 cmp	 DWORD PTR __Result$[ebp], 0
  0004e	7d 09		 jge	 SHORT $LN3@vswprintf_
  00050	c7 45 f8 ff ff
	ff ff		 mov	 DWORD PTR tv73[ebp], -1
  00057	eb 06		 jmp	 SHORT $LN4@vswprintf_
$LN3@vswprintf_:
  00059	8b 4d fc	 mov	 ecx, DWORD PTR __Result$[ebp]
  0005c	89 4d f8	 mov	 DWORD PTR tv73[ebp], ecx
$LN4@vswprintf_:
  0005f	8b 45 f8	 mov	 eax, DWORD PTR tv73[ebp]

; 1262 :     }

  00062	5e		 pop	 esi
  00063	83 c4 08	 add	 esp, 8
  00066	3b ec		 cmp	 ebp, esp
  00068	e8 00 00 00 00	 call	 __RTC_CheckEsp
  0006d	8b e5		 mov	 esp, ebp
  0006f	5d		 pop	 ebp
  00070	c3		 ret	 0
__vswprintf_s_l ENDP
_TEXT	ENDS
; Function compile flags: /Odtp /RTCsu
; File D:\Windows Kits\10\Include\10.0.22000.0\ucrt\corecrt_stdio_config.h
;	COMDAT ___local_stdio_printf_options
_TEXT	SEGMENT
___local_stdio_printf_options PROC			; COMDAT

; 90   :     {

  00000	55		 push	 ebp
  00001	8b ec		 mov	 ebp, esp

; 91   :         static unsigned __int64 _OptionsStorage;
; 92   :         return &_OptionsStorage;

  00003	b8 00 00 00 00	 mov	 eax, OFFSET ?_OptionsStorage@?1??__local_stdio_printf_options@@9@4_KA ; `__local_stdio_printf_options'::`2'::_OptionsStorage

; 93   :     }

  00008	5d		 pop	 ebp
  00009	c3		 ret	 0
___local_stdio_printf_options ENDP
_TEXT	ENDS
; Function compile flags: /Odtp /RTCsu
; File C:\Users\15485\Desktop\工程之星点格棋\工程之星点格棋\NewBoxes.cpp
;	COMDAT ?__empty_global_delete@@YAXPAXI@Z
_TEXT	SEGMENT
___formal$ = 8						; size = 4
___formal$ = 12						; size = 4
?__empty_global_delete@@YAXPAXI@Z PROC			; __empty_global_delete, COMDAT

  00000	55		 push	 ebp
  00001	8b ec		 mov	 ebp, esp
  00003	5d		 pop	 ebp
  00004	c3		 ret	 0
?__empty_global_delete@@YAXPAXI@Z ENDP			; __empty_global_delete
_TEXT	ENDS
; Function compile flags: /Odtp /RTCsu
; File C:\Users\15485\Desktop\工程之星点格棋\工程之星点格棋\NewBoxes.cpp
;	COMDAT ?__empty_global_delete@@YAXPAX@Z
_TEXT	SEGMENT
___formal$ = 8						; size = 4
?__empty_global_delete@@YAXPAX@Z PROC			; __empty_global_delete, COMDAT

  00000	55		 push	 ebp
  00001	8b ec		 mov	 ebp, esp
  00003	5d		 pop	 ebp
  00004	c3		 ret	 0
?__empty_global_delete@@YAXPAX@Z ENDP			; __empty_global_delete
_TEXT	ENDS
END
