; Listing generated by Microsoft (R) Optimizing Compiler Version 19.35.32217.1 

	TITLE	C:\Users\15485\Desktop\工程之星点格棋\工程之星点格棋\Debug\NewDialog.obj
	.686P
	.XMM
	include listing.inc
	.model	flat

INCLUDELIB MSVCRTD
INCLUDELIB OLDNAMES

PUBLIC	?__empty_global_delete@@YAXPAX@Z		; __empty_global_delete
PUBLIC	?__empty_global_delete@@YAXPAXI@Z		; __empty_global_delete
PUBLIC	??0NewDialog@@QAE@PAVCWnd@@@Z			; NewDialog::NewDialog
PUBLIC	?DoDataExchange@NewDialog@@MAEXPAVCDataExchange@@@Z ; NewDialog::DoDataExchange
PUBLIC	?OnInitDialog@NewDialog@@MAEHXZ			; NewDialog::OnInitDialog
PUBLIC	?OnOK@NewDialog@@MAEXXZ				; NewDialog::OnOK
PUBLIC	?GetThisMessageMap@NewDialog@@KGPBUAFX_MSGMAP@@XZ ; NewDialog::GetThisMessageMap
PUBLIC	?GetMessageMap@NewDialog@@MBEPBUAFX_MSGMAP@@XZ	; NewDialog::GetMessageMap
PUBLIC	??1NewDialog@@UAE@XZ				; NewDialog::~NewDialog
PUBLIC	??_GNewDialog@@UAEPAXI@Z			; NewDialog::`scalar deleting destructor'
PUBLIC	?CurrentDefaultWidth@CNewBoxesDoc@@QAEHXZ	; CNewBoxesDoc::CurrentDefaultWidth
PUBLIC	?CurrentDefaultHeight@CNewBoxesDoc@@QAEHXZ	; CNewBoxesDoc::CurrentDefaultHeight
PUBLIC	?CurrentRandomize@CNewBoxesDoc@@QAE_NXZ		; CNewBoxesDoc::CurrentRandomize
PUBLIC	?CurrentRandomSeed@CNewBoxesDoc@@QAEIXZ		; CNewBoxesDoc::CurrentRandomSeed
PUBLIC	??_R1A@?0A@EA@CObject@@8			; CObject::`RTTI Base Class Descriptor at (0,-1,0,64)'
PUBLIC	??_R0?AVCObject@@@8				; CObject `RTTI Type Descriptor'
PUBLIC	??_R3CObject@@8					; CObject::`RTTI Class Hierarchy Descriptor'
PUBLIC	??_R2CObject@@8					; CObject::`RTTI Base Class Array'
PUBLIC	??_R1A@?0A@EA@CDialog@@8			; CDialog::`RTTI Base Class Descriptor at (0,-1,0,64)'
PUBLIC	??_R0?AVCDialog@@@8				; CDialog `RTTI Type Descriptor'
PUBLIC	??_R3CDialog@@8					; CDialog::`RTTI Class Hierarchy Descriptor'
PUBLIC	??_R2CDialog@@8					; CDialog::`RTTI Base Class Array'
PUBLIC	??_R1A@?0A@EA@CWnd@@8				; CWnd::`RTTI Base Class Descriptor at (0,-1,0,64)'
PUBLIC	??_R0?AVCWnd@@@8				; CWnd `RTTI Type Descriptor'
PUBLIC	??_R3CWnd@@8					; CWnd::`RTTI Class Hierarchy Descriptor'
PUBLIC	??_R2CWnd@@8					; CWnd::`RTTI Base Class Array'
PUBLIC	??_R1A@?0A@EA@CCmdTarget@@8			; CCmdTarget::`RTTI Base Class Descriptor at (0,-1,0,64)'
PUBLIC	??_R0?AVCCmdTarget@@@8				; CCmdTarget `RTTI Type Descriptor'
PUBLIC	??_R3CCmdTarget@@8				; CCmdTarget::`RTTI Class Hierarchy Descriptor'
PUBLIC	??_R2CCmdTarget@@8				; CCmdTarget::`RTTI Base Class Array'
PUBLIC	??_7NewDialog@@6B@				; NewDialog::`vftable'
PUBLIC	??_R4NewDialog@@6B@				; NewDialog::`RTTI Complete Object Locator'
PUBLIC	??_R0?AVNewDialog@@@8				; NewDialog `RTTI Type Descriptor'
PUBLIC	??_R3NewDialog@@8				; NewDialog::`RTTI Class Hierarchy Descriptor'
PUBLIC	??_R2NewDialog@@8				; NewDialog::`RTTI Base Class Array'
PUBLIC	??_R1A@?0A@EA@NewDialog@@8			; NewDialog::`RTTI Base Class Descriptor at (0,-1,0,64)'
EXTRN	?__global_delete@@YAXPAXI@Z:PROC		; __global_delete
EXTRN	__imp__GetSystemTimeAsFileTime@4:PROC
EXTRN	??3CObject@@SGXPAX@Z:PROC			; CObject::operator delete
EXTRN	?Serialize@CObject@@UAEXAAVCArchive@@@Z:PROC	; CObject::Serialize
EXTRN	?DDX_Text@@YGXPAVCDataExchange@@HAAI@Z:PROC	; DDX_Text
EXTRN	?DDV_MinMaxUInt@@YGXPAVCDataExchange@@III@Z:PROC ; DDV_MinMaxUInt
EXTRN	?IsInvokeAllowed@CCmdTarget@@UAEHJ@Z:PROC	; CCmdTarget::IsInvokeAllowed
EXTRN	?GetDispatchIID@CCmdTarget@@UAEHPAU_GUID@@@Z:PROC ; CCmdTarget::GetDispatchIID
EXTRN	?GetTypeInfoCount@CCmdTarget@@UAEIXZ:PROC	; CCmdTarget::GetTypeInfoCount
EXTRN	?GetTypeLibCache@CCmdTarget@@UAEPAVCTypeLibCache@@XZ:PROC ; CCmdTarget::GetTypeLibCache
EXTRN	?GetTypeLib@CCmdTarget@@UAEJKPAPAUITypeLib@@@Z:PROC ; CCmdTarget::GetTypeLib
EXTRN	?GetCommandMap@CCmdTarget@@MBEPBUAFX_OLECMDMAP@@XZ:PROC ; CCmdTarget::GetCommandMap
EXTRN	?GetDispatchMap@CCmdTarget@@MBEPBUAFX_DISPMAP@@XZ:PROC ; CCmdTarget::GetDispatchMap
EXTRN	?GetConnectionMap@CCmdTarget@@MBEPBUAFX_CONNECTIONMAP@@XZ:PROC ; CCmdTarget::GetConnectionMap
EXTRN	?GetEventSinkMap@CCmdTarget@@MBEPBUAFX_EVENTSINKMAP@@XZ:PROC ; CCmdTarget::GetEventSinkMap
EXTRN	?OnCreateAggregates@CCmdTarget@@UAEHXZ:PROC	; CCmdTarget::OnCreateAggregates
EXTRN	?GetInterfaceHook@CCmdTarget@@UAEPAUIUnknown@@PBX@Z:PROC ; CCmdTarget::GetInterfaceHook
EXTRN	?GetExtraConnectionPoints@CCmdTarget@@MAEHPAVCPtrArray@@@Z:PROC ; CCmdTarget::GetExtraConnectionPoints
EXTRN	?GetConnectionHook@CCmdTarget@@MAEPAUIConnectionPoint@@ABU_GUID@@@Z:PROC ; CCmdTarget::GetConnectionHook
EXTRN	?PreSubclassWindow@CWnd@@UAEXXZ:PROC		; CWnd::PreSubclassWindow
EXTRN	?Create@CWnd@@UAEHPBD0KABUtagRECT@@PAV1@IPAUCCreateContext@@@Z:PROC ; CWnd::Create
EXTRN	?CreateEx@CWnd@@UAEHKPBD0KHHHHPAUHWND__@@PAUHMENU__@@PAX@Z:PROC ; CWnd::CreateEx
EXTRN	?CreateEx@CWnd@@UAEHKPBD0KABUtagRECT@@PAV1@IPAX@Z:PROC ; CWnd::CreateEx
EXTRN	?DestroyWindow@CWnd@@UAEHXZ:PROC		; CWnd::DestroyWindow
EXTRN	?PreCreateWindow@CWnd@@UAEHAAUtagCREATESTRUCTA@@@Z:PROC ; CWnd::PreCreateWindow
EXTRN	?CalcWindowRect@CWnd@@UAEXPAUtagRECT@@I@Z:PROC	; CWnd::CalcWindowRect
EXTRN	?GetMenu@CWnd@@UBEPAVCMenu@@XZ:PROC		; CWnd::GetMenu
EXTRN	?SetMenu@CWnd@@UAEHPAVCMenu@@@Z:PROC		; CWnd::SetMenu
EXTRN	?OnToolHitTest@CWnd@@UBEHVCPoint@@PAUtagTOOLINFOA@@@Z:PROC ; CWnd::OnToolHitTest
EXTRN	?GetScrollBarCtrl@CWnd@@UBEPAVCScrollBar@@H@Z:PROC ; CWnd::GetScrollBarCtrl
EXTRN	?UpdateData@CWnd@@QAEHH@Z:PROC			; CWnd::UpdateData
EXTRN	?WinHelpA@CWnd@@UAEXKI@Z:PROC			; CWnd::WinHelpA
EXTRN	?HtmlHelpA@CWnd@@UAEXKI@Z:PROC			; CWnd::HtmlHelpA
EXTRN	?WinHelpInternal@CWnd@@UAEXKI@Z:PROC		; CWnd::WinHelpInternal
EXTRN	?ContinueModal@CWnd@@UAEHXZ:PROC		; CWnd::ContinueModal
EXTRN	?EndModalLoop@CWnd@@UAEXH@Z:PROC		; CWnd::EndModalLoop
EXTRN	?OnDrawIconicThumbnailOrLivePreview@CWnd@@UAEXAAVCDC@@VCRect@@VCSize@@HAAH@Z:PROC ; CWnd::OnDrawIconicThumbnailOrLivePreview
EXTRN	?GetInterfaceMap@CWnd@@MBEPBUAFX_INTERFACEMAP@@XZ:PROC ; CWnd::GetInterfaceMap
EXTRN	?EnsureStdObj@CWnd@@UAEJXZ:PROC			; CWnd::EnsureStdObj
EXTRN	?get_accParent@CWnd@@UAEJPAPAUIDispatch@@@Z:PROC ; CWnd::get_accParent
EXTRN	?get_accChildCount@CWnd@@UAEJPAJ@Z:PROC		; CWnd::get_accChildCount
EXTRN	?get_accChild@CWnd@@UAEJUtagVARIANT@@PAPAUIDispatch@@@Z:PROC ; CWnd::get_accChild
EXTRN	?get_accName@CWnd@@UAEJUtagVARIANT@@PAPA_W@Z:PROC ; CWnd::get_accName
EXTRN	?get_accValue@CWnd@@UAEJUtagVARIANT@@PAPA_W@Z:PROC ; CWnd::get_accValue
EXTRN	?get_accDescription@CWnd@@UAEJUtagVARIANT@@PAPA_W@Z:PROC ; CWnd::get_accDescription
EXTRN	?get_accRole@CWnd@@UAEJUtagVARIANT@@PAU2@@Z:PROC ; CWnd::get_accRole
EXTRN	?get_accState@CWnd@@UAEJUtagVARIANT@@PAU2@@Z:PROC ; CWnd::get_accState
EXTRN	?get_accHelp@CWnd@@UAEJUtagVARIANT@@PAPA_W@Z:PROC ; CWnd::get_accHelp
EXTRN	?get_accHelpTopic@CWnd@@UAEJPAPA_WUtagVARIANT@@PAJ@Z:PROC ; CWnd::get_accHelpTopic
EXTRN	?get_accKeyboardShortcut@CWnd@@UAEJUtagVARIANT@@PAPA_W@Z:PROC ; CWnd::get_accKeyboardShortcut
EXTRN	?get_accFocus@CWnd@@UAEJPAUtagVARIANT@@@Z:PROC	; CWnd::get_accFocus
EXTRN	?get_accSelection@CWnd@@UAEJPAUtagVARIANT@@@Z:PROC ; CWnd::get_accSelection
EXTRN	?get_accDefaultAction@CWnd@@UAEJUtagVARIANT@@PAPA_W@Z:PROC ; CWnd::get_accDefaultAction
EXTRN	?accSelect@CWnd@@UAEJJUtagVARIANT@@@Z:PROC	; CWnd::accSelect
EXTRN	?accLocation@CWnd@@UAEJPAJ000UtagVARIANT@@@Z:PROC ; CWnd::accLocation
EXTRN	?accNavigate@CWnd@@UAEJJUtagVARIANT@@PAU2@@Z:PROC ; CWnd::accNavigate
EXTRN	?accHitTest@CWnd@@UAEJJJPAUtagVARIANT@@@Z:PROC	; CWnd::accHitTest
EXTRN	?accDoDefaultAction@CWnd@@UAEJUtagVARIANT@@@Z:PROC ; CWnd::accDoDefaultAction
EXTRN	?put_accName@CWnd@@UAEJUtagVARIANT@@PA_W@Z:PROC	; CWnd::put_accName
EXTRN	?put_accValue@CWnd@@UAEJUtagVARIANT@@PA_W@Z:PROC ; CWnd::put_accValue
EXTRN	?SetProxy@CWnd@@UAEJPAUIAccessibleProxy@@@Z:PROC ; CWnd::SetProxy
EXTRN	?CreateAccessibleProxy@CWnd@@UAEJIJPAJ@Z:PROC	; CWnd::CreateAccessibleProxy
EXTRN	?OnCommand@CWnd@@MAEHIJ@Z:PROC			; CWnd::OnCommand
EXTRN	?OnNotify@CWnd@@MAEHIJPAJ@Z:PROC		; CWnd::OnNotify
EXTRN	?GetSuperWndProcAddr@CWnd@@MAEPAP6GJPAUHWND__@@IIJ@ZXZ:PROC ; CWnd::GetSuperWndProcAddr
EXTRN	?DoDataExchange@CWnd@@MAEXPAVCDataExchange@@@Z:PROC ; CWnd::DoDataExchange
EXTRN	?BeginModalState@CWnd@@UAEXXZ:PROC		; CWnd::BeginModalState
EXTRN	?EndModalState@CWnd@@UAEXXZ:PROC		; CWnd::EndModalState
EXTRN	?OnAmbientProperty@CWnd@@UAEHPAVCOleControlSite@@JPAUtagVARIANT@@@Z:PROC ; CWnd::OnAmbientProperty
EXTRN	?WindowProc@CWnd@@MAEJIIJ@Z:PROC		; CWnd::WindowProc
EXTRN	?OnWndMsg@CWnd@@MAEHIIJPAJ@Z:PROC		; CWnd::OnWndMsg
EXTRN	?DefWindowProcA@CWnd@@MAEJIIJ@Z:PROC		; CWnd::DefWindowProcA
EXTRN	?PostNcDestroy@CWnd@@MAEXXZ:PROC		; CWnd::PostNcDestroy
EXTRN	?OnChildNotify@CWnd@@MAEHIIJPAJ@Z:PROC		; CWnd::OnChildNotify
EXTRN	?OnTouchInputs@CWnd@@MAEHIPAUtagTOUCHINPUT@@@Z:PROC ; CWnd::OnTouchInputs
EXTRN	?OnTouchInput@CWnd@@MAEHVCPoint@@HHPAUtagTOUCHINPUT@@@Z:PROC ; CWnd::OnTouchInput
EXTRN	?GetGestureStatus@CWnd@@MAEKVCPoint@@@Z:PROC	; CWnd::GetGestureStatus
EXTRN	?OnGestureZoom@CWnd@@MAEHVCPoint@@J@Z:PROC	; CWnd::OnGestureZoom
EXTRN	?OnGesturePan@CWnd@@MAEHVCPoint@@0@Z:PROC	; CWnd::OnGesturePan
EXTRN	?OnGestureRotate@CWnd@@MAEHVCPoint@@N@Z:PROC	; CWnd::OnGestureRotate
EXTRN	?OnGestureTwoFingerTap@CWnd@@MAEHVCPoint@@@Z:PROC ; CWnd::OnGestureTwoFingerTap
EXTRN	?OnGesturePressAndTap@CWnd@@MAEHVCPoint@@J@Z:PROC ; CWnd::OnGesturePressAndTap
EXTRN	?ResizeDynamicLayout@CWnd@@MAEXXZ:PROC		; CWnd::ResizeDynamicLayout
EXTRN	?IsFrameWnd@CWnd@@UBEHXZ:PROC			; CWnd::IsFrameWnd
EXTRN	?OnFinalRelease@CWnd@@UAEXXZ:PROC		; CWnd::OnFinalRelease
EXTRN	?CreateControlContainer@CWnd@@MAEHPAPAVCOleControlContainer@@@Z:PROC ; CWnd::CreateControlContainer
EXTRN	?CreateControlSite@CWnd@@MAEHPAVCOleControlContainer@@PAPAVCOleControlSite@@IABU_GUID@@@Z:PROC ; CWnd::CreateControlSite
EXTRN	?GetRuntimeClass@CDialog@@UBEPAUCRuntimeClass@@XZ:PROC ; CDialog::GetRuntimeClass
EXTRN	?Create@CDialog@@UAEHPBDPAVCWnd@@@Z:PROC	; CDialog::Create
EXTRN	?Create@CDialog@@UAEHIPAVCWnd@@@Z:PROC		; CDialog::Create
EXTRN	?CreateIndirect@CDialog@@UAEHPBUDLGTEMPLATE@@PAVCWnd@@PAX@Z:PROC ; CDialog::CreateIndirect
EXTRN	?CreateIndirect@CDialog@@UAEHPAXPAVCWnd@@@Z:PROC ; CDialog::CreateIndirect
EXTRN	??0CDialog@@QAE@IPAVCWnd@@@Z:PROC		; CDialog::CDialog
EXTRN	?DoModal@CDialog@@UAEHXZ:PROC			; CDialog::DoModal
EXTRN	?OnInitDialog@CDialog@@UAEHXZ:PROC		; CDialog::OnInitDialog
EXTRN	?OnSetFont@CDialog@@UAEXPAVCFont@@@Z:PROC	; CDialog::OnSetFont
EXTRN	?OnOK@CDialog@@MAEXXZ:PROC			; CDialog::OnOK
EXTRN	?OnCancel@CDialog@@MAEXXZ:PROC			; CDialog::OnCancel
EXTRN	??1CDialog@@UAE@XZ:PROC				; CDialog::~CDialog
EXTRN	?AssertValid@CDialog@@UBEXXZ:PROC		; CDialog::AssertValid
EXTRN	?Dump@CDialog@@UBEXAAVCDumpContext@@@Z:PROC	; CDialog::Dump
EXTRN	?PreTranslateMessage@CDialog@@UAEHPAUtagMSG@@@Z:PROC ; CDialog::PreTranslateMessage
EXTRN	?OnCmdMsg@CDialog@@UAEHIHPAXPAUAFX_CMDHANDLERINFO@@@Z:PROC ; CDialog::OnCmdMsg
EXTRN	?CheckAutoCenter@CDialog@@UAEHXZ:PROC		; CDialog::CheckAutoCenter
EXTRN	?SetOccDialogInfo@CDialog@@MAEHPAU_AFX_OCC_DIALOG_INFO@@@Z:PROC ; CDialog::SetOccDialogInfo
EXTRN	?GetOccDialogInfo@CDialog@@MAEPAU_AFX_OCC_DIALOG_INFO@@XZ:PROC ; CDialog::GetOccDialogInfo
EXTRN	?PreInitDialog@CDialog@@MAEXXZ:PROC		; CDialog::PreInitDialog
EXTRN	?GetThisMessageMap@CDialog@@KGPBUAFX_MSGMAP@@XZ:PROC ; CDialog::GetThisMessageMap
EXTRN	??0CButton@@QAE@XZ:PROC				; CButton::CButton
EXTRN	??1CButton@@UAE@XZ:PROC				; CButton::~CButton
EXTRN	??_ENewDialog@@UAEPAXI@Z:PROC			; NewDialog::`vector deleting destructor'
EXTRN	@_RTC_CheckStackVars@8:PROC
EXTRN	@__security_check_cookie@4:PROC
EXTRN	__RTC_CheckEsp:PROC
EXTRN	__RTC_InitBase:PROC
EXTRN	__RTC_Shutdown:PROC
EXTRN	___CxxFrameHandler3:PROC
EXTRN	??_7type_info@@6B@:QWORD			; type_info::`vftable'
EXTRN	?pDoc@@3PAVCNewBoxesDoc@@A:DWORD		; pDoc
EXTRN	___security_cookie:DWORD
_BSS	SEGMENT
?prevRandomSeed@@3IA DD 01H DUP (?)			; prevRandomSeed
?prevSeedValid@@3_NA DB 01H DUP (?)			; prevSeedValid
_BSS	ENDS
;	COMDAT rtc$TMZ
rtc$TMZ	SEGMENT
__RTC_Shutdown.rtc$TMZ DD FLAT:__RTC_Shutdown
rtc$TMZ	ENDS
;	COMDAT rtc$IMZ
rtc$IMZ	SEGMENT
__RTC_InitBase.rtc$IMZ DD FLAT:__RTC_InitBase
rtc$IMZ	ENDS
;	COMDAT ??_R1A@?0A@EA@NewDialog@@8
rdata$r	SEGMENT
??_R1A@?0A@EA@NewDialog@@8 DD FLAT:??_R0?AVNewDialog@@@8 ; NewDialog::`RTTI Base Class Descriptor at (0,-1,0,64)'
	DD	04H
	DD	00H
	DD	0ffffffffH
	DD	00H
	DD	040H
	DD	FLAT:??_R3NewDialog@@8
rdata$r	ENDS
;	COMDAT ??_R2NewDialog@@8
rdata$r	SEGMENT
??_R2NewDialog@@8 DD FLAT:??_R1A@?0A@EA@NewDialog@@8	; NewDialog::`RTTI Base Class Array'
	DD	FLAT:??_R1A@?0A@EA@CDialog@@8
	DD	FLAT:??_R1A@?0A@EA@CWnd@@8
	DD	FLAT:??_R1A@?0A@EA@CCmdTarget@@8
	DD	FLAT:??_R1A@?0A@EA@CObject@@8
rdata$r	ENDS
;	COMDAT ??_R3NewDialog@@8
rdata$r	SEGMENT
??_R3NewDialog@@8 DD 00H				; NewDialog::`RTTI Class Hierarchy Descriptor'
	DD	00H
	DD	05H
	DD	FLAT:??_R2NewDialog@@8
rdata$r	ENDS
;	COMDAT ??_R0?AVNewDialog@@@8
data$rs	SEGMENT
??_R0?AVNewDialog@@@8 DD FLAT:??_7type_info@@6B@	; NewDialog `RTTI Type Descriptor'
	DD	00H
	DB	'.?AVNewDialog@@', 00H
data$rs	ENDS
;	COMDAT ??_R4NewDialog@@6B@
rdata$r	SEGMENT
??_R4NewDialog@@6B@ DD 00H				; NewDialog::`RTTI Complete Object Locator'
	DD	00H
	DD	00H
	DD	FLAT:??_R0?AVNewDialog@@@8
	DD	FLAT:??_R3NewDialog@@8
rdata$r	ENDS
;	COMDAT ?messageMap@?1??GetThisMessageMap@NewDialog@@KGPBUAFX_MSGMAP@@XZ@4U3@B
CONST	SEGMENT
?messageMap@?1??GetThisMessageMap@NewDialog@@KGPBUAFX_MSGMAP@@XZ@4U3@B DD FLAT:?GetThisMessageMap@CDialog@@KGPBUAFX_MSGMAP@@XZ ; `NewDialog::GetThisMessageMap'::`2'::messageMap
	DD	FLAT:?_messageEntries@?1??GetThisMessageMap@NewDialog@@KGPBUAFX_MSGMAP@@XZ@4QBUAFX_MSGMAP_ENTRY@@B
CONST	ENDS
;	COMDAT ?_messageEntries@?1??GetThisMessageMap@NewDialog@@KGPBUAFX_MSGMAP@@XZ@4QBUAFX_MSGMAP_ENTRY@@B
CONST	SEGMENT
?_messageEntries@?1??GetThisMessageMap@NewDialog@@KGPBUAFX_MSGMAP@@XZ@4QBUAFX_MSGMAP_ENTRY@@B DD 00H ; `NewDialog::GetThisMessageMap'::`2'::_messageEntries
	DD	00H
	DD	00H
	DD	00H
	DD	00H
	DD	00H
CONST	ENDS
_DATA	SEGMENT
?prevWidth@@3IA DD 0ffffffffH				; prevWidth
?prevHeight@@3IA DD 0ffffffffH				; prevHeight
?prevRandomize@@3IA DD 0ffffffffH			; prevRandomize
_DATA	ENDS
;	COMDAT ??_7NewDialog@@6B@
CONST	SEGMENT
??_7NewDialog@@6B@ DD FLAT:??_R4NewDialog@@6B@		; NewDialog::`vftable'
	DD	FLAT:?GetRuntimeClass@CDialog@@UBEPAUCRuntimeClass@@XZ
	DD	FLAT:??_ENewDialog@@UAEPAXI@Z
	DD	FLAT:?Serialize@CObject@@UAEXAAVCArchive@@@Z
	DD	FLAT:?AssertValid@CDialog@@UBEXXZ
	DD	FLAT:?Dump@CDialog@@UBEXAAVCDumpContext@@@Z
	DD	FLAT:?OnCmdMsg@CDialog@@UAEHIHPAXPAUAFX_CMDHANDLERINFO@@@Z
	DD	FLAT:?OnFinalRelease@CWnd@@UAEXXZ
	DD	FLAT:?IsInvokeAllowed@CCmdTarget@@UAEHJ@Z
	DD	FLAT:?GetDispatchIID@CCmdTarget@@UAEHPAU_GUID@@@Z
	DD	FLAT:?GetTypeInfoCount@CCmdTarget@@UAEIXZ
	DD	FLAT:?GetTypeLibCache@CCmdTarget@@UAEPAVCTypeLibCache@@XZ
	DD	FLAT:?GetTypeLib@CCmdTarget@@UAEJKPAPAUITypeLib@@@Z
	DD	FLAT:?GetMessageMap@NewDialog@@MBEPBUAFX_MSGMAP@@XZ
	DD	FLAT:?GetCommandMap@CCmdTarget@@MBEPBUAFX_OLECMDMAP@@XZ
	DD	FLAT:?GetDispatchMap@CCmdTarget@@MBEPBUAFX_DISPMAP@@XZ
	DD	FLAT:?GetConnectionMap@CCmdTarget@@MBEPBUAFX_CONNECTIONMAP@@XZ
	DD	FLAT:?GetInterfaceMap@CWnd@@MBEPBUAFX_INTERFACEMAP@@XZ
	DD	FLAT:?GetEventSinkMap@CCmdTarget@@MBEPBUAFX_EVENTSINKMAP@@XZ
	DD	FLAT:?OnCreateAggregates@CCmdTarget@@UAEHXZ
	DD	FLAT:?GetInterfaceHook@CCmdTarget@@UAEPAUIUnknown@@PBX@Z
	DD	FLAT:?GetExtraConnectionPoints@CCmdTarget@@MAEHPAVCPtrArray@@@Z
	DD	FLAT:?GetConnectionHook@CCmdTarget@@MAEPAUIConnectionPoint@@ABU_GUID@@@Z
	DD	FLAT:?PreSubclassWindow@CWnd@@UAEXXZ
	DD	FLAT:?Create@CWnd@@UAEHPBD0KABUtagRECT@@PAV1@IPAUCCreateContext@@@Z
	DD	FLAT:?CreateEx@CWnd@@UAEHKPBD0KABUtagRECT@@PAV1@IPAX@Z
	DD	FLAT:?CreateEx@CWnd@@UAEHKPBD0KHHHHPAUHWND__@@PAUHMENU__@@PAX@Z
	DD	FLAT:?DestroyWindow@CWnd@@UAEHXZ
	DD	FLAT:?PreCreateWindow@CWnd@@UAEHAAUtagCREATESTRUCTA@@@Z
	DD	FLAT:?CalcWindowRect@CWnd@@UAEXPAUtagRECT@@I@Z
	DD	FLAT:?GetMenu@CWnd@@UBEPAVCMenu@@XZ
	DD	FLAT:?SetMenu@CWnd@@UAEHPAVCMenu@@@Z
	DD	FLAT:?OnToolHitTest@CWnd@@UBEHVCPoint@@PAUtagTOOLINFOA@@@Z
	DD	FLAT:?GetScrollBarCtrl@CWnd@@UBEPAVCScrollBar@@H@Z
	DD	FLAT:?WinHelpA@CWnd@@UAEXKI@Z
	DD	FLAT:?HtmlHelpA@CWnd@@UAEXKI@Z
	DD	FLAT:?WinHelpInternal@CWnd@@UAEXKI@Z
	DD	FLAT:?ContinueModal@CWnd@@UAEHXZ
	DD	FLAT:?EndModalLoop@CWnd@@UAEXH@Z
	DD	FLAT:?OnDrawIconicThumbnailOrLivePreview@CWnd@@UAEXAAVCDC@@VCRect@@VCSize@@HAAH@Z
	DD	FLAT:?EnsureStdObj@CWnd@@UAEJXZ
	DD	FLAT:?get_accParent@CWnd@@UAEJPAPAUIDispatch@@@Z
	DD	FLAT:?get_accChildCount@CWnd@@UAEJPAJ@Z
	DD	FLAT:?get_accChild@CWnd@@UAEJUtagVARIANT@@PAPAUIDispatch@@@Z
	DD	FLAT:?get_accName@CWnd@@UAEJUtagVARIANT@@PAPA_W@Z
	DD	FLAT:?get_accValue@CWnd@@UAEJUtagVARIANT@@PAPA_W@Z
	DD	FLAT:?get_accDescription@CWnd@@UAEJUtagVARIANT@@PAPA_W@Z
	DD	FLAT:?get_accRole@CWnd@@UAEJUtagVARIANT@@PAU2@@Z
	DD	FLAT:?get_accState@CWnd@@UAEJUtagVARIANT@@PAU2@@Z
	DD	FLAT:?get_accHelp@CWnd@@UAEJUtagVARIANT@@PAPA_W@Z
	DD	FLAT:?get_accHelpTopic@CWnd@@UAEJPAPA_WUtagVARIANT@@PAJ@Z
	DD	FLAT:?get_accKeyboardShortcut@CWnd@@UAEJUtagVARIANT@@PAPA_W@Z
	DD	FLAT:?get_accFocus@CWnd@@UAEJPAUtagVARIANT@@@Z
	DD	FLAT:?get_accSelection@CWnd@@UAEJPAUtagVARIANT@@@Z
	DD	FLAT:?get_accDefaultAction@CWnd@@UAEJUtagVARIANT@@PAPA_W@Z
	DD	FLAT:?accSelect@CWnd@@UAEJJUtagVARIANT@@@Z
	DD	FLAT:?accLocation@CWnd@@UAEJPAJ000UtagVARIANT@@@Z
	DD	FLAT:?accNavigate@CWnd@@UAEJJUtagVARIANT@@PAU2@@Z
	DD	FLAT:?accHitTest@CWnd@@UAEJJJPAUtagVARIANT@@@Z
	DD	FLAT:?accDoDefaultAction@CWnd@@UAEJUtagVARIANT@@@Z
	DD	FLAT:?put_accName@CWnd@@UAEJUtagVARIANT@@PA_W@Z
	DD	FLAT:?put_accValue@CWnd@@UAEJUtagVARIANT@@PA_W@Z
	DD	FLAT:?SetProxy@CWnd@@UAEJPAUIAccessibleProxy@@@Z
	DD	FLAT:?CreateAccessibleProxy@CWnd@@UAEJIJPAJ@Z
	DD	FLAT:?OnCommand@CWnd@@MAEHIJ@Z
	DD	FLAT:?OnNotify@CWnd@@MAEHIJPAJ@Z
	DD	FLAT:?GetSuperWndProcAddr@CWnd@@MAEPAP6GJPAUHWND__@@IIJ@ZXZ
	DD	FLAT:?DoDataExchange@NewDialog@@MAEXPAVCDataExchange@@@Z
	DD	FLAT:?BeginModalState@CWnd@@UAEXXZ
	DD	FLAT:?EndModalState@CWnd@@UAEXXZ
	DD	FLAT:?PreTranslateMessage@CDialog@@UAEHPAUtagMSG@@@Z
	DD	FLAT:?OnAmbientProperty@CWnd@@UAEHPAVCOleControlSite@@JPAUtagVARIANT@@@Z
	DD	FLAT:?WindowProc@CWnd@@MAEJIIJ@Z
	DD	FLAT:?OnWndMsg@CWnd@@MAEHIIJPAJ@Z
	DD	FLAT:?DefWindowProcA@CWnd@@MAEJIIJ@Z
	DD	FLAT:?PostNcDestroy@CWnd@@MAEXXZ
	DD	FLAT:?OnChildNotify@CWnd@@MAEHIIJPAJ@Z
	DD	FLAT:?OnTouchInputs@CWnd@@MAEHIPAUtagTOUCHINPUT@@@Z
	DD	FLAT:?OnTouchInput@CWnd@@MAEHVCPoint@@HHPAUtagTOUCHINPUT@@@Z
	DD	FLAT:?GetGestureStatus@CWnd@@MAEKVCPoint@@@Z
	DD	FLAT:?OnGestureZoom@CWnd@@MAEHVCPoint@@J@Z
	DD	FLAT:?OnGesturePan@CWnd@@MAEHVCPoint@@0@Z
	DD	FLAT:?OnGestureRotate@CWnd@@MAEHVCPoint@@N@Z
	DD	FLAT:?OnGestureTwoFingerTap@CWnd@@MAEHVCPoint@@@Z
	DD	FLAT:?OnGesturePressAndTap@CWnd@@MAEHVCPoint@@J@Z
	DD	FLAT:?ResizeDynamicLayout@CWnd@@MAEXXZ
	DD	FLAT:?CheckAutoCenter@CDialog@@UAEHXZ
	DD	FLAT:?IsFrameWnd@CWnd@@UBEHXZ
	DD	FLAT:?CreateControlContainer@CWnd@@MAEHPAPAVCOleControlContainer@@@Z
	DD	FLAT:?CreateControlSite@CWnd@@MAEHPAVCOleControlContainer@@PAPAVCOleControlSite@@IABU_GUID@@@Z
	DD	FLAT:?SetOccDialogInfo@CDialog@@MAEHPAU_AFX_OCC_DIALOG_INFO@@@Z
	DD	FLAT:?GetOccDialogInfo@CDialog@@MAEPAU_AFX_OCC_DIALOG_INFO@@XZ
	DD	FLAT:?Create@CDialog@@UAEHIPAVCWnd@@@Z
	DD	FLAT:?Create@CDialog@@UAEHPBDPAVCWnd@@@Z
	DD	FLAT:?CreateIndirect@CDialog@@UAEHPAXPAVCWnd@@@Z
	DD	FLAT:?CreateIndirect@CDialog@@UAEHPBUDLGTEMPLATE@@PAVCWnd@@PAX@Z
	DD	FLAT:?DoModal@CDialog@@UAEHXZ
	DD	FLAT:?OnInitDialog@NewDialog@@MAEHXZ
	DD	FLAT:?OnSetFont@CDialog@@UAEXPAVCFont@@@Z
	DD	FLAT:?OnOK@NewDialog@@MAEXXZ
	DD	FLAT:?OnCancel@CDialog@@MAEXXZ
	DD	FLAT:?PreInitDialog@CDialog@@MAEXXZ
CONST	ENDS
;	COMDAT ??_R2CCmdTarget@@8
rdata$r	SEGMENT
??_R2CCmdTarget@@8 DD FLAT:??_R1A@?0A@EA@CCmdTarget@@8	; CCmdTarget::`RTTI Base Class Array'
	DD	FLAT:??_R1A@?0A@EA@CObject@@8
rdata$r	ENDS
;	COMDAT ??_R3CCmdTarget@@8
rdata$r	SEGMENT
??_R3CCmdTarget@@8 DD 00H				; CCmdTarget::`RTTI Class Hierarchy Descriptor'
	DD	00H
	DD	02H
	DD	FLAT:??_R2CCmdTarget@@8
rdata$r	ENDS
;	COMDAT ??_R0?AVCCmdTarget@@@8
data$rs	SEGMENT
??_R0?AVCCmdTarget@@@8 DD FLAT:??_7type_info@@6B@	; CCmdTarget `RTTI Type Descriptor'
	DD	00H
	DB	'.?AVCCmdTarget@@', 00H
data$rs	ENDS
;	COMDAT ??_R1A@?0A@EA@CCmdTarget@@8
rdata$r	SEGMENT
??_R1A@?0A@EA@CCmdTarget@@8 DD FLAT:??_R0?AVCCmdTarget@@@8 ; CCmdTarget::`RTTI Base Class Descriptor at (0,-1,0,64)'
	DD	01H
	DD	00H
	DD	0ffffffffH
	DD	00H
	DD	040H
	DD	FLAT:??_R3CCmdTarget@@8
rdata$r	ENDS
;	COMDAT ??_R2CWnd@@8
rdata$r	SEGMENT
??_R2CWnd@@8 DD	FLAT:??_R1A@?0A@EA@CWnd@@8		; CWnd::`RTTI Base Class Array'
	DD	FLAT:??_R1A@?0A@EA@CCmdTarget@@8
	DD	FLAT:??_R1A@?0A@EA@CObject@@8
rdata$r	ENDS
;	COMDAT ??_R3CWnd@@8
rdata$r	SEGMENT
??_R3CWnd@@8 DD	00H					; CWnd::`RTTI Class Hierarchy Descriptor'
	DD	00H
	DD	03H
	DD	FLAT:??_R2CWnd@@8
rdata$r	ENDS
;	COMDAT ??_R0?AVCWnd@@@8
data$rs	SEGMENT
??_R0?AVCWnd@@@8 DD FLAT:??_7type_info@@6B@		; CWnd `RTTI Type Descriptor'
	DD	00H
	DB	'.?AVCWnd@@', 00H
data$rs	ENDS
;	COMDAT ??_R1A@?0A@EA@CWnd@@8
rdata$r	SEGMENT
??_R1A@?0A@EA@CWnd@@8 DD FLAT:??_R0?AVCWnd@@@8		; CWnd::`RTTI Base Class Descriptor at (0,-1,0,64)'
	DD	02H
	DD	00H
	DD	0ffffffffH
	DD	00H
	DD	040H
	DD	FLAT:??_R3CWnd@@8
rdata$r	ENDS
;	COMDAT ??_R2CDialog@@8
rdata$r	SEGMENT
??_R2CDialog@@8 DD FLAT:??_R1A@?0A@EA@CDialog@@8	; CDialog::`RTTI Base Class Array'
	DD	FLAT:??_R1A@?0A@EA@CWnd@@8
	DD	FLAT:??_R1A@?0A@EA@CCmdTarget@@8
	DD	FLAT:??_R1A@?0A@EA@CObject@@8
rdata$r	ENDS
;	COMDAT ??_R3CDialog@@8
rdata$r	SEGMENT
??_R3CDialog@@8 DD 00H					; CDialog::`RTTI Class Hierarchy Descriptor'
	DD	00H
	DD	04H
	DD	FLAT:??_R2CDialog@@8
rdata$r	ENDS
;	COMDAT ??_R0?AVCDialog@@@8
data$rs	SEGMENT
??_R0?AVCDialog@@@8 DD FLAT:??_7type_info@@6B@		; CDialog `RTTI Type Descriptor'
	DD	00H
	DB	'.?AVCDialog@@', 00H
data$rs	ENDS
;	COMDAT ??_R1A@?0A@EA@CDialog@@8
rdata$r	SEGMENT
??_R1A@?0A@EA@CDialog@@8 DD FLAT:??_R0?AVCDialog@@@8	; CDialog::`RTTI Base Class Descriptor at (0,-1,0,64)'
	DD	03H
	DD	00H
	DD	0ffffffffH
	DD	00H
	DD	040H
	DD	FLAT:??_R3CDialog@@8
rdata$r	ENDS
;	COMDAT ??_R2CObject@@8
rdata$r	SEGMENT
??_R2CObject@@8 DD FLAT:??_R1A@?0A@EA@CObject@@8	; CObject::`RTTI Base Class Array'
rdata$r	ENDS
;	COMDAT ??_R3CObject@@8
rdata$r	SEGMENT
??_R3CObject@@8 DD 00H					; CObject::`RTTI Class Hierarchy Descriptor'
	DD	00H
	DD	01H
	DD	FLAT:??_R2CObject@@8
rdata$r	ENDS
;	COMDAT ??_R0?AVCObject@@@8
data$rs	SEGMENT
??_R0?AVCObject@@@8 DD FLAT:??_7type_info@@6B@		; CObject `RTTI Type Descriptor'
	DD	00H
	DB	'.?AVCObject@@', 00H
data$rs	ENDS
;	COMDAT ??_R1A@?0A@EA@CObject@@8
rdata$r	SEGMENT
??_R1A@?0A@EA@CObject@@8 DD FLAT:??_R0?AVCObject@@@8	; CObject::`RTTI Base Class Descriptor at (0,-1,0,64)'
	DD	00H
	DD	00H
	DD	0ffffffffH
	DD	00H
	DD	040H
	DD	FLAT:??_R3CObject@@8
rdata$r	ENDS
voltbl	SEGMENT
_volmd	DD	0ffffffffH
	DDSymXIndex: 	FLAT:__unwindfunclet$??0NewDialog@@QAE@PAVCWnd@@@Z$0
	DD	016H
voltbl	ENDS
xdata$x	SEGMENT
__unwindtable$??0NewDialog@@QAE@PAVCWnd@@@Z DD 0ffffffffH
	DD	FLAT:__unwindfunclet$??0NewDialog@@QAE@PAVCWnd@@@Z$0
__ehfuncinfo$??0NewDialog@@QAE@PAVCWnd@@@Z DD 019930522H
	DD	01H
	DD	FLAT:__unwindtable$??0NewDialog@@QAE@PAVCWnd@@@Z
	DD	2 DUP(00H)
	DD	2 DUP(00H)
	DD	00H
	DD	01H
xdata$x	ENDS
; Function compile flags: /Odtp /RTCsu
; File C:\Users\15485\Desktop\工程之星点格棋\工程之星点格棋\NewBoxesDoc.h
;	COMDAT ?CurrentRandomSeed@CNewBoxesDoc@@QAEIXZ
_TEXT	SEGMENT
_this$ = -4						; size = 4
?CurrentRandomSeed@CNewBoxesDoc@@QAEIXZ PROC		; CNewBoxesDoc::CurrentRandomSeed, COMDAT
; _this$ = ecx

; 111  :   ui32 CurrentRandomSeed(void){return m_currentRandomSeed;};

  00000	55		 push	 ebp
  00001	8b ec		 mov	 ebp, esp
  00003	51		 push	 ecx
  00004	89 4d fc	 mov	 DWORD PTR _this$[ebp], ecx
  00007	8b 45 fc	 mov	 eax, DWORD PTR _this$[ebp]
  0000a	8b 80 34 01 00
	00		 mov	 eax, DWORD PTR [eax+308]
  00010	8b e5		 mov	 esp, ebp
  00012	5d		 pop	 ebp
  00013	c3		 ret	 0
?CurrentRandomSeed@CNewBoxesDoc@@QAEIXZ ENDP		; CNewBoxesDoc::CurrentRandomSeed
_TEXT	ENDS
; Function compile flags: /Odtp /RTCsu
; File C:\Users\15485\Desktop\工程之星点格棋\工程之星点格棋\NewBoxesDoc.h
;	COMDAT ?CurrentRandomize@CNewBoxesDoc@@QAE_NXZ
_TEXT	SEGMENT
_this$ = -4						; size = 4
?CurrentRandomize@CNewBoxesDoc@@QAE_NXZ PROC		; CNewBoxesDoc::CurrentRandomize, COMDAT
; _this$ = ecx

; 109  :   bool CurrentRandomize(void){return m_currentRandomize;};

  00000	55		 push	 ebp
  00001	8b ec		 mov	 ebp, esp
  00003	51		 push	 ecx
  00004	89 4d fc	 mov	 DWORD PTR _this$[ebp], ecx
  00007	8b 45 fc	 mov	 eax, DWORD PTR _this$[ebp]
  0000a	0f b6 80 38 01
	00 00		 movzx	 eax, BYTE PTR [eax+312]
  00011	8b e5		 mov	 esp, ebp
  00013	5d		 pop	 ebp
  00014	c3		 ret	 0
?CurrentRandomize@CNewBoxesDoc@@QAE_NXZ ENDP		; CNewBoxesDoc::CurrentRandomize
_TEXT	ENDS
; Function compile flags: /Odtp /RTCsu
; File C:\Users\15485\Desktop\工程之星点格棋\工程之星点格棋\NewBoxesDoc.h
;	COMDAT ?CurrentDefaultHeight@CNewBoxesDoc@@QAEHXZ
_TEXT	SEGMENT
_this$ = -4						; size = 4
?CurrentDefaultHeight@CNewBoxesDoc@@QAEHXZ PROC		; CNewBoxesDoc::CurrentDefaultHeight, COMDAT
; _this$ = ecx

; 107  :   int CurrentDefaultHeight(void){return m_currentDefaultHeight;};

  00000	55		 push	 ebp
  00001	8b ec		 mov	 ebp, esp
  00003	51		 push	 ecx
  00004	89 4d fc	 mov	 DWORD PTR _this$[ebp], ecx
  00007	8b 45 fc	 mov	 eax, DWORD PTR _this$[ebp]
  0000a	8b 80 dc 00 00
	00		 mov	 eax, DWORD PTR [eax+220]
  00010	8b e5		 mov	 esp, ebp
  00012	5d		 pop	 ebp
  00013	c3		 ret	 0
?CurrentDefaultHeight@CNewBoxesDoc@@QAEHXZ ENDP		; CNewBoxesDoc::CurrentDefaultHeight
_TEXT	ENDS
; Function compile flags: /Odtp /RTCsu
; File C:\Users\15485\Desktop\工程之星点格棋\工程之星点格棋\NewBoxesDoc.h
;	COMDAT ?CurrentDefaultWidth@CNewBoxesDoc@@QAEHXZ
_TEXT	SEGMENT
_this$ = -4						; size = 4
?CurrentDefaultWidth@CNewBoxesDoc@@QAEHXZ PROC		; CNewBoxesDoc::CurrentDefaultWidth, COMDAT
; _this$ = ecx

; 106  :   int CurrentDefaultWidth(void){return m_currentDefaultWidth;};

  00000	55		 push	 ebp
  00001	8b ec		 mov	 ebp, esp
  00003	51		 push	 ecx
  00004	89 4d fc	 mov	 DWORD PTR _this$[ebp], ecx
  00007	8b 45 fc	 mov	 eax, DWORD PTR _this$[ebp]
  0000a	8b 80 d8 00 00
	00		 mov	 eax, DWORD PTR [eax+216]
  00010	8b e5		 mov	 esp, ebp
  00012	5d		 pop	 ebp
  00013	c3		 ret	 0
?CurrentDefaultWidth@CNewBoxesDoc@@QAEHXZ ENDP		; CNewBoxesDoc::CurrentDefaultWidth
_TEXT	ENDS
; Function compile flags: /Odtp /RTCsu
;	COMDAT ??_GNewDialog@@UAEPAXI@Z
_TEXT	SEGMENT
_this$ = -4						; size = 4
___flags$ = 8						; size = 4
??_GNewDialog@@UAEPAXI@Z PROC				; NewDialog::`scalar deleting destructor', COMDAT
; _this$ = ecx
  00000	55		 push	 ebp
  00001	8b ec		 mov	 ebp, esp
  00003	51		 push	 ecx
  00004	c7 45 fc cc cc
	cc cc		 mov	 DWORD PTR [ebp-4], -858993460 ; ccccccccH
  0000b	89 4d fc	 mov	 DWORD PTR _this$[ebp], ecx
  0000e	8b 4d fc	 mov	 ecx, DWORD PTR _this$[ebp]
  00011	e8 00 00 00 00	 call	 ??1NewDialog@@UAE@XZ
  00016	8b 45 08	 mov	 eax, DWORD PTR ___flags$[ebp]
  00019	83 e0 01	 and	 eax, 1
  0001c	74 24		 je	 SHORT $LN2@scalar
  0001e	8b 4d 08	 mov	 ecx, DWORD PTR ___flags$[ebp]
  00021	83 e1 04	 and	 ecx, 4
  00024	75 0b		 jne	 SHORT $LN3@scalar
  00026	8b 55 fc	 mov	 edx, DWORD PTR _this$[ebp]
  00029	52		 push	 edx
  0002a	e8 00 00 00 00	 call	 ??3CObject@@SGXPAX@Z	; CObject::operator delete
  0002f	eb 11		 jmp	 SHORT $LN2@scalar
$LN3@scalar:
  00031	68 40 01 00 00	 push	 320			; 00000140H
  00036	8b 45 fc	 mov	 eax, DWORD PTR _this$[ebp]
  00039	50		 push	 eax
  0003a	e8 00 00 00 00	 call	 ?__global_delete@@YAXPAXI@Z ; __global_delete
  0003f	83 c4 08	 add	 esp, 8
$LN2@scalar:
  00042	8b 45 fc	 mov	 eax, DWORD PTR _this$[ebp]
  00045	83 c4 04	 add	 esp, 4
  00048	3b ec		 cmp	 ebp, esp
  0004a	e8 00 00 00 00	 call	 __RTC_CheckEsp
  0004f	8b e5		 mov	 esp, ebp
  00051	5d		 pop	 ebp
  00052	c2 04 00	 ret	 4
??_GNewDialog@@UAEPAXI@Z ENDP				; NewDialog::`scalar deleting destructor'
_TEXT	ENDS
; Function compile flags: /Odtp /RTCsu
;	COMDAT ??1NewDialog@@UAE@XZ
_TEXT	SEGMENT
_this$ = -4						; size = 4
??1NewDialog@@UAE@XZ PROC				; NewDialog::~NewDialog, COMDAT
; _this$ = ecx
  00000	55		 push	 ebp
  00001	8b ec		 mov	 ebp, esp
  00003	51		 push	 ecx
  00004	c7 45 fc cc cc
	cc cc		 mov	 DWORD PTR [ebp-4], -858993460 ; ccccccccH
  0000b	89 4d fc	 mov	 DWORD PTR _this$[ebp], ecx
  0000e	8b 4d fc	 mov	 ecx, DWORD PTR _this$[ebp]
  00011	81 c1 a8 00 00
	00		 add	 ecx, 168		; 000000a8H
  00017	e8 00 00 00 00	 call	 ??1CButton@@UAE@XZ	; CButton::~CButton
  0001c	8b 4d fc	 mov	 ecx, DWORD PTR _this$[ebp]
  0001f	e8 00 00 00 00	 call	 ??1CDialog@@UAE@XZ	; CDialog::~CDialog
  00024	83 c4 04	 add	 esp, 4
  00027	3b ec		 cmp	 ebp, esp
  00029	e8 00 00 00 00	 call	 __RTC_CheckEsp
  0002e	8b e5		 mov	 esp, ebp
  00030	5d		 pop	 ebp
  00031	c3		 ret	 0
??1NewDialog@@UAE@XZ ENDP				; NewDialog::~NewDialog
_TEXT	ENDS
; Function compile flags: /Odtp /RTCsu
; File C:\Users\15485\Desktop\工程之星点格棋\工程之星点格棋\NewDialog.cpp
_TEXT	SEGMENT
_this$ = -4						; size = 4
?GetMessageMap@NewDialog@@MBEPBUAFX_MSGMAP@@XZ PROC	; NewDialog::GetMessageMap
; _this$ = ecx

; 58   : BEGIN_MESSAGE_MAP(NewDialog, CDialog)

  00000	55		 push	 ebp
  00001	8b ec		 mov	 ebp, esp
  00003	51		 push	 ecx
  00004	c7 45 fc cc cc
	cc cc		 mov	 DWORD PTR [ebp-4], -858993460 ; ccccccccH
  0000b	89 4d fc	 mov	 DWORD PTR _this$[ebp], ecx
  0000e	e8 00 00 00 00	 call	 ?GetThisMessageMap@NewDialog@@KGPBUAFX_MSGMAP@@XZ ; NewDialog::GetThisMessageMap
  00013	83 c4 04	 add	 esp, 4
  00016	3b ec		 cmp	 ebp, esp
  00018	e8 00 00 00 00	 call	 __RTC_CheckEsp
  0001d	8b e5		 mov	 esp, ebp
  0001f	5d		 pop	 ebp
  00020	c3		 ret	 0
?GetMessageMap@NewDialog@@MBEPBUAFX_MSGMAP@@XZ ENDP	; NewDialog::GetMessageMap
_TEXT	ENDS
; Function compile flags: /Odtp /RTCsu
; File C:\Users\15485\Desktop\工程之星点格棋\工程之星点格棋\NewDialog.cpp
_TEXT	SEGMENT
?GetThisMessageMap@NewDialog@@KGPBUAFX_MSGMAP@@XZ PROC	; NewDialog::GetThisMessageMap

; 58   : BEGIN_MESSAGE_MAP(NewDialog, CDialog)

  00000	55		 push	 ebp
  00001	8b ec		 mov	 ebp, esp

; 59   : 	//{{AFX_MSG_MAP(NewDialog)
; 60   : 	//ON_BN_CLICKED(IDC_Randomize, OnRandomize)
; 61   : 	//ON_BN_CLICKED(IDC_SetRandomSeed, OnRandomize)
; 62   : 	//}}AFX_MSG_MAP
; 63   : END_MESSAGE_MAP()

  00003	b8 00 00 00 00	 mov	 eax, OFFSET ?messageMap@?1??GetThisMessageMap@NewDialog@@KGPBUAFX_MSGMAP@@XZ@4U3@B
  00008	5d		 pop	 ebp
  00009	c3		 ret	 0
?GetThisMessageMap@NewDialog@@KGPBUAFX_MSGMAP@@XZ ENDP	; NewDialog::GetThisMessageMap
_TEXT	ENDS
; Function compile flags: /Odtp /RTCsu
; File C:\Users\15485\Desktop\工程之星点格棋\工程之星点格棋\NewDialog.cpp
_TEXT	SEGMENT
_fileTime$1 = -16					; size = 8
_this$ = -4						; size = 4
?OnOK@NewDialog@@MAEXXZ PROC				; NewDialog::OnOK
; _this$ = ecx

; 106  : {

  00000	55		 push	 ebp
  00001	8b ec		 mov	 ebp, esp
  00003	83 ec 14	 sub	 esp, 20			; 00000014H
  00006	56		 push	 esi
  00007	b8 cc cc cc cc	 mov	 eax, -858993460		; ccccccccH
  0000c	89 45 ec	 mov	 DWORD PTR [ebp-20], eax
  0000f	89 45 f0	 mov	 DWORD PTR [ebp-16], eax
  00012	89 45 f4	 mov	 DWORD PTR [ebp-12], eax
  00015	89 45 f8	 mov	 DWORD PTR [ebp-8], eax
  00018	89 45 fc	 mov	 DWORD PTR [ebp-4], eax
  0001b	89 4d fc	 mov	 DWORD PTR _this$[ebp], ecx

; 107  : 	// TODO: Add extra validation here
; 108  :   UpdateData(true);

  0001e	6a 01		 push	 1
  00020	8b 4d fc	 mov	 ecx, DWORD PTR _this$[ebp]
  00023	e8 00 00 00 00	 call	 ?UpdateData@CWnd@@QAEHH@Z ; CWnd::UpdateData

; 109  :   prevRandomize = m_randomize;

  00028	8b 45 fc	 mov	 eax, DWORD PTR _this$[ebp]
  0002b	8b 88 30 01 00
	00		 mov	 ecx, DWORD PTR [eax+304]
  00031	89 0d 00 00 00
	00		 mov	 DWORD PTR ?prevRandomize@@3IA, ecx

; 110  :   prevWidth = m_width;

  00037	8b 55 fc	 mov	 edx, DWORD PTR _this$[ebp]
  0003a	8b 82 2c 01 00
	00		 mov	 eax, DWORD PTR [edx+300]
  00040	a3 00 00 00 00	 mov	 DWORD PTR ?prevWidth@@3IA, eax

; 111  :   prevHeight = m_height;

  00045	8b 4d fc	 mov	 ecx, DWORD PTR _this$[ebp]
  00048	8b 91 34 01 00
	00		 mov	 edx, DWORD PTR [ecx+308]
  0004e	89 15 00 00 00
	00		 mov	 DWORD PTR ?prevHeight@@3IA, edx

; 112  :   m_bRandomize = false;

  00054	8b 45 fc	 mov	 eax, DWORD PTR _this$[ebp]
  00057	c6 80 38 01 00
	00 00		 mov	 BYTE PTR [eax+312], 0

; 113  :   if (m_randomize == 0)

  0005e	8b 4d fc	 mov	 ecx, DWORD PTR _this$[ebp]
  00061	83 b9 30 01 00
	00 00		 cmp	 DWORD PTR [ecx+304], 0
  00068	75 29		 jne	 SHORT $LN2@OnOK

; 114  :   {
; 115  :     FILETIME fileTime;
; 116  :     GetSystemTimeAsFileTime(&fileTime);

  0006a	8b f4		 mov	 esi, esp
  0006c	8d 55 f0	 lea	 edx, DWORD PTR _fileTime$1[ebp]
  0006f	52		 push	 edx
  00070	ff 15 00 00 00
	00		 call	 DWORD PTR __imp__GetSystemTimeAsFileTime@4
  00076	3b f4		 cmp	 esi, esp
  00078	e8 00 00 00 00	 call	 __RTC_CheckEsp

; 117  :     m_randomSeed = fileTime.dwLowDateTime;

  0007d	8b 45 fc	 mov	 eax, DWORD PTR _this$[ebp]
  00080	8b 4d f0	 mov	 ecx, DWORD PTR _fileTime$1[ebp]
  00083	89 88 28 01 00
	00		 mov	 DWORD PTR [eax+296], ecx

; 118  :     m_bRandomize = true;

  00089	8b 55 fc	 mov	 edx, DWORD PTR _this$[ebp]
  0008c	c6 82 38 01 00
	00 01		 mov	 BYTE PTR [edx+312], 1
$LN2@OnOK:

; 119  :   };
; 120  :   prevRandomSeed = m_randomSeed;

  00093	8b 45 fc	 mov	 eax, DWORD PTR _this$[ebp]
  00096	8b 88 28 01 00
	00		 mov	 ecx, DWORD PTR [eax+296]
  0009c	89 0d 00 00 00
	00		 mov	 DWORD PTR ?prevRandomSeed@@3IA, ecx

; 121  : 	CDialog::OnOK();

  000a2	8b 4d fc	 mov	 ecx, DWORD PTR _this$[ebp]
  000a5	e8 00 00 00 00	 call	 ?OnOK@CDialog@@MAEXXZ	; CDialog::OnOK

; 122  : }

  000aa	52		 push	 edx
  000ab	8b cd		 mov	 ecx, ebp
  000ad	50		 push	 eax
  000ae	8d 15 00 00 00
	00		 lea	 edx, DWORD PTR $LN6@OnOK
  000b4	e8 00 00 00 00	 call	 @_RTC_CheckStackVars@8
  000b9	58		 pop	 eax
  000ba	5a		 pop	 edx
  000bb	5e		 pop	 esi
  000bc	83 c4 14	 add	 esp, 20			; 00000014H
  000bf	3b ec		 cmp	 ebp, esp
  000c1	e8 00 00 00 00	 call	 __RTC_CheckEsp
  000c6	8b e5		 mov	 esp, ebp
  000c8	5d		 pop	 ebp
  000c9	c3		 ret	 0
  000ca	66 90		 npad	 2
$LN6@OnOK:
  000cc	01 00 00 00	 DD	 1
  000d0	00 00 00 00	 DD	 $LN5@OnOK
$LN5@OnOK:
  000d4	f0 ff ff ff	 DD	 -16			; fffffff0H
  000d8	08 00 00 00	 DD	 8
  000dc	00 00 00 00	 DD	 $LN4@OnOK
$LN4@OnOK:
  000e0	66		 DB	 102			; 00000066H
  000e1	69		 DB	 105			; 00000069H
  000e2	6c		 DB	 108			; 0000006cH
  000e3	65		 DB	 101			; 00000065H
  000e4	54		 DB	 84			; 00000054H
  000e5	69		 DB	 105			; 00000069H
  000e6	6d		 DB	 109			; 0000006dH
  000e7	65		 DB	 101			; 00000065H
  000e8	00		 DB	 0
?OnOK@NewDialog@@MAEXXZ ENDP				; NewDialog::OnOK
_TEXT	ENDS
; Function compile flags: /Odtp /RTCsu
; File C:\Users\15485\Desktop\工程之星点格棋\工程之星点格棋\NewDialog.cpp
_TEXT	SEGMENT
tv79 = -8						; size = 4
_this$ = -4						; size = 4
?OnInitDialog@NewDialog@@MAEHXZ PROC			; NewDialog::OnInitDialog
; _this$ = ecx

; 77   : {

  00000	55		 push	 ebp
  00001	8b ec		 mov	 ebp, esp
  00003	83 ec 08	 sub	 esp, 8
  00006	c7 45 f8 cc cc
	cc cc		 mov	 DWORD PTR [ebp-8], -858993460 ; ccccccccH
  0000d	c7 45 fc cc cc
	cc cc		 mov	 DWORD PTR [ebp-4], -858993460 ; ccccccccH
  00014	89 4d fc	 mov	 DWORD PTR _this$[ebp], ecx

; 78   : 	CDialog::OnInitDialog();

  00017	8b 4d fc	 mov	 ecx, DWORD PTR _this$[ebp]
  0001a	e8 00 00 00 00	 call	 ?OnInitDialog@CDialog@@UAEHXZ ; CDialog::OnInitDialog

; 79   :   m_randomize = prevRandomize;

  0001f	8b 45 fc	 mov	 eax, DWORD PTR _this$[ebp]
  00022	8b 0d 00 00 00
	00		 mov	 ecx, DWORD PTR ?prevRandomize@@3IA
  00028	89 88 30 01 00
	00		 mov	 DWORD PTR [eax+304], ecx

; 80   :   if (m_randomize == 0xffffffff)

  0002e	8b 55 fc	 mov	 edx, DWORD PTR _this$[ebp]
  00031	83 ba 30 01 00
	00 ff		 cmp	 DWORD PTR [edx+304], -1
  00038	75 3e		 jne	 SHORT $LN2@OnInitDial

; 81   :   {
; 82   :     m_bRandomize = pDoc->CurrentRandomize();

  0003a	8b 0d 00 00 00
	00		 mov	 ecx, DWORD PTR ?pDoc@@3PAVCNewBoxesDoc@@A ; pDoc
  00040	e8 00 00 00 00	 call	 ?CurrentRandomize@CNewBoxesDoc@@QAE_NXZ ; CNewBoxesDoc::CurrentRandomize
  00045	8b 4d fc	 mov	 ecx, DWORD PTR _this$[ebp]
  00048	88 81 38 01 00
	00		 mov	 BYTE PTR [ecx+312], al

; 83   :     m_randomize = m_bRandomize ? 0 : 1;

  0004e	8b 55 fc	 mov	 edx, DWORD PTR _this$[ebp]
  00051	0f b6 82 38 01
	00 00		 movzx	 eax, BYTE PTR [edx+312]
  00058	85 c0		 test	 eax, eax
  0005a	74 09		 je	 SHORT $LN8@OnInitDial
  0005c	c7 45 f8 00 00
	00 00		 mov	 DWORD PTR tv79[ebp], 0
  00063	eb 07		 jmp	 SHORT $LN9@OnInitDial
$LN8@OnInitDial:
  00065	c7 45 f8 01 00
	00 00		 mov	 DWORD PTR tv79[ebp], 1
$LN9@OnInitDial:
  0006c	8b 4d fc	 mov	 ecx, DWORD PTR _this$[ebp]
  0006f	8b 55 f8	 mov	 edx, DWORD PTR tv79[ebp]
  00072	89 91 30 01 00
	00		 mov	 DWORD PTR [ecx+304], edx
$LN2@OnInitDial:

; 84   :   };
; 85   :   m_width = prevWidth;

  00078	8b 45 fc	 mov	 eax, DWORD PTR _this$[ebp]
  0007b	8b 0d 00 00 00
	00		 mov	 ecx, DWORD PTR ?prevWidth@@3IA
  00081	89 88 2c 01 00
	00		 mov	 DWORD PTR [eax+300], ecx

; 86   :   if (m_width == 0xffffffff) m_width = pDoc->CurrentDefaultWidth();

  00087	8b 55 fc	 mov	 edx, DWORD PTR _this$[ebp]
  0008a	83 ba 2c 01 00
	00 ff		 cmp	 DWORD PTR [edx+300], -1
  00091	75 14		 jne	 SHORT $LN3@OnInitDial
  00093	8b 0d 00 00 00
	00		 mov	 ecx, DWORD PTR ?pDoc@@3PAVCNewBoxesDoc@@A ; pDoc
  00099	e8 00 00 00 00	 call	 ?CurrentDefaultWidth@CNewBoxesDoc@@QAEHXZ ; CNewBoxesDoc::CurrentDefaultWidth
  0009e	8b 4d fc	 mov	 ecx, DWORD PTR _this$[ebp]
  000a1	89 81 2c 01 00
	00		 mov	 DWORD PTR [ecx+300], eax
$LN3@OnInitDial:

; 87   :   m_height = prevHeight;

  000a7	8b 55 fc	 mov	 edx, DWORD PTR _this$[ebp]
  000aa	a1 00 00 00 00	 mov	 eax, DWORD PTR ?prevHeight@@3IA
  000af	89 82 34 01 00
	00		 mov	 DWORD PTR [edx+308], eax

; 88   :   if (m_height == 0xffffffff) m_height = pDoc->CurrentDefaultHeight();

  000b5	8b 4d fc	 mov	 ecx, DWORD PTR _this$[ebp]
  000b8	83 b9 34 01 00
	00 ff		 cmp	 DWORD PTR [ecx+308], -1
  000bf	75 14		 jne	 SHORT $LN4@OnInitDial
  000c1	8b 0d 00 00 00
	00		 mov	 ecx, DWORD PTR ?pDoc@@3PAVCNewBoxesDoc@@A ; pDoc
  000c7	e8 00 00 00 00	 call	 ?CurrentDefaultHeight@CNewBoxesDoc@@QAEHXZ ; CNewBoxesDoc::CurrentDefaultHeight
  000cc	8b 55 fc	 mov	 edx, DWORD PTR _this$[ebp]
  000cf	89 82 34 01 00
	00		 mov	 DWORD PTR [edx+308], eax
$LN4@OnInitDial:

; 89   :   if (prevSeedValid)

  000d5	0f b6 05 00 00
	00 00		 movzx	 eax, BYTE PTR ?prevSeedValid@@3_NA
  000dc	85 c0		 test	 eax, eax
  000de	74 11		 je	 SHORT $LN5@OnInitDial

; 90   :   {
; 91   :     m_randomSeed = prevRandomSeed;

  000e0	8b 4d fc	 mov	 ecx, DWORD PTR _this$[ebp]
  000e3	8b 15 00 00 00
	00		 mov	 edx, DWORD PTR ?prevRandomSeed@@3IA
  000e9	89 91 28 01 00
	00		 mov	 DWORD PTR [ecx+296], edx

; 92   :   }

  000ef	eb 14		 jmp	 SHORT $LN6@OnInitDial
$LN5@OnInitDial:

; 93   :   else
; 94   :   {
; 95   :     m_randomSeed = pDoc->CurrentRandomSeed();

  000f1	8b 0d 00 00 00
	00		 mov	 ecx, DWORD PTR ?pDoc@@3PAVCNewBoxesDoc@@A ; pDoc
  000f7	e8 00 00 00 00	 call	 ?CurrentRandomSeed@CNewBoxesDoc@@QAEIXZ ; CNewBoxesDoc::CurrentRandomSeed
  000fc	8b 4d fc	 mov	 ecx, DWORD PTR _this$[ebp]
  000ff	89 81 28 01 00
	00		 mov	 DWORD PTR [ecx+296], eax
$LN6@OnInitDial:

; 96   :   };
; 97   :   UpdateData(false);

  00105	6a 00		 push	 0
  00107	8b 4d fc	 mov	 ecx, DWORD PTR _this$[ebp]
  0010a	e8 00 00 00 00	 call	 ?UpdateData@CWnd@@QAEHH@Z ; CWnd::UpdateData

; 98   :   //OnRandomize();
; 99   : 	// TODO: Add extra initialization here
; 100  : 	
; 101  : 	return TRUE;  // return TRUE unless you set the focus to a control

  0010f	b8 01 00 00 00	 mov	 eax, 1

; 102  : 	              // EXCEPTION: OCX Property Pages should return FALSE
; 103  : }

  00114	83 c4 08	 add	 esp, 8
  00117	3b ec		 cmp	 ebp, esp
  00119	e8 00 00 00 00	 call	 __RTC_CheckEsp
  0011e	8b e5		 mov	 esp, ebp
  00120	5d		 pop	 ebp
  00121	c3		 ret	 0
?OnInitDialog@NewDialog@@MAEHXZ ENDP			; NewDialog::OnInitDialog
_TEXT	ENDS
; Function compile flags: /Odtp /RTCsu
; File C:\Users\15485\Desktop\工程之星点格棋\工程之星点格棋\NewDialog.cpp
_TEXT	SEGMENT
_this$ = -4						; size = 4
_pDX$ = 8						; size = 4
?DoDataExchange@NewDialog@@MAEXPAVCDataExchange@@@Z PROC ; NewDialog::DoDataExchange
; _this$ = ecx

; 43   : {

  00000	55		 push	 ebp
  00001	8b ec		 mov	 ebp, esp
  00003	51		 push	 ecx
  00004	c7 45 fc cc cc
	cc cc		 mov	 DWORD PTR [ebp-4], -858993460 ; ccccccccH
  0000b	89 4d fc	 mov	 DWORD PTR _this$[ebp], ecx

; 44   : 	CDialog::DoDataExchange(pDX);

  0000e	8b 45 08	 mov	 eax, DWORD PTR _pDX$[ebp]
  00011	50		 push	 eax
  00012	8b 4d fc	 mov	 ecx, DWORD PTR _this$[ebp]
  00015	e8 00 00 00 00	 call	 ?DoDataExchange@CWnd@@MAEXPAVCDataExchange@@@Z ; CWnd::DoDataExchange

; 45   : 	//{{AFX_DATA_MAP(NewDialog)
; 46   : 	//DDX_Control(pDX, IDC_Randomize, m_Randomize);
; 47   : 	//DDX_Text(pDX, IDC_RandomSeed, m_randomSeed);
; 48   : 	//DDV_MinMaxUInt(pDX, m_randomSeed, 0, 4294967295);
; 49   : 	DDX_Text(pDX, IDC_Width, m_width);

  0001a	8b 4d fc	 mov	 ecx, DWORD PTR _this$[ebp]
  0001d	81 c1 2c 01 00
	00		 add	 ecx, 300		; 0000012cH
  00023	51		 push	 ecx
  00024	68 e8 03 00 00	 push	 1000			; 000003e8H
  00029	8b 55 08	 mov	 edx, DWORD PTR _pDX$[ebp]
  0002c	52		 push	 edx
  0002d	e8 00 00 00 00	 call	 ?DDX_Text@@YGXPAVCDataExchange@@HAAI@Z ; DDX_Text

; 50   : 	DDV_MinMaxUInt(pDX, m_width, 0, 99);

  00032	6a 63		 push	 99			; 00000063H
  00034	6a 00		 push	 0
  00036	8b 45 fc	 mov	 eax, DWORD PTR _this$[ebp]
  00039	8b 88 2c 01 00
	00		 mov	 ecx, DWORD PTR [eax+300]
  0003f	51		 push	 ecx
  00040	8b 55 08	 mov	 edx, DWORD PTR _pDX$[ebp]
  00043	52		 push	 edx
  00044	e8 00 00 00 00	 call	 ?DDV_MinMaxUInt@@YGXPAVCDataExchange@@III@Z ; DDV_MinMaxUInt

; 51   : 	//DDX_Radio(pDX, IDC_Randomize, m_randomize);
; 52   : 	DDX_Text(pDX, IDC_Height, m_height);

  00049	8b 45 fc	 mov	 eax, DWORD PTR _this$[ebp]
  0004c	05 34 01 00 00	 add	 eax, 308		; 00000134H
  00051	50		 push	 eax
  00052	68 e9 03 00 00	 push	 1001			; 000003e9H
  00057	8b 4d 08	 mov	 ecx, DWORD PTR _pDX$[ebp]
  0005a	51		 push	 ecx
  0005b	e8 00 00 00 00	 call	 ?DDX_Text@@YGXPAVCDataExchange@@HAAI@Z ; DDX_Text

; 53   : 	DDV_MinMaxUInt(pDX, m_height, 2, 999);

  00060	68 e7 03 00 00	 push	 999			; 000003e7H
  00065	6a 02		 push	 2
  00067	8b 55 fc	 mov	 edx, DWORD PTR _this$[ebp]
  0006a	8b 82 34 01 00
	00		 mov	 eax, DWORD PTR [edx+308]
  00070	50		 push	 eax
  00071	8b 4d 08	 mov	 ecx, DWORD PTR _pDX$[ebp]
  00074	51		 push	 ecx
  00075	e8 00 00 00 00	 call	 ?DDV_MinMaxUInt@@YGXPAVCDataExchange@@III@Z ; DDV_MinMaxUInt

; 54   : 	//}}AFX_DATA_MAP
; 55   : }

  0007a	83 c4 04	 add	 esp, 4
  0007d	3b ec		 cmp	 ebp, esp
  0007f	e8 00 00 00 00	 call	 __RTC_CheckEsp
  00084	8b e5		 mov	 esp, ebp
  00086	5d		 pop	 ebp
  00087	c2 04 00	 ret	 4
?DoDataExchange@NewDialog@@MAEXPAVCDataExchange@@@Z ENDP ; NewDialog::DoDataExchange
_TEXT	ENDS
; Function compile flags: /Odtp /RTCsu
; File C:\Users\15485\Desktop\工程之星点格棋\工程之星点格棋\NewDialog.cpp
_TEXT	SEGMENT
_this$ = -16						; size = 4
__$EHRec$ = -12						; size = 12
_pParent$ = 8						; size = 4
??0NewDialog@@QAE@PAVCWnd@@@Z PROC			; NewDialog::NewDialog
; _this$ = ecx

; 32   : {

  00000	55		 push	 ebp
  00001	8b ec		 mov	 ebp, esp
  00003	6a ff		 push	 -1
  00005	68 00 00 00 00	 push	 __ehhandler$??0NewDialog@@QAE@PAVCWnd@@@Z
  0000a	64 a1 00 00 00
	00		 mov	 eax, DWORD PTR fs:0
  00010	50		 push	 eax
  00011	51		 push	 ecx
  00012	c7 45 f0 cc cc
	cc cc		 mov	 DWORD PTR [ebp-16], -858993460 ; ccccccccH
  00019	a1 00 00 00 00	 mov	 eax, DWORD PTR ___security_cookie
  0001e	33 c5		 xor	 eax, ebp
  00020	50		 push	 eax
  00021	8d 45 f4	 lea	 eax, DWORD PTR __$EHRec$[ebp]
  00024	64 a3 00 00 00
	00		 mov	 DWORD PTR fs:0, eax
  0002a	89 4d f0	 mov	 DWORD PTR _this$[ebp], ecx

; 31   : 	: CDialog(NewDialog::IDD, pParent)

  0002d	8b 45 08	 mov	 eax, DWORD PTR _pParent$[ebp]
  00030	50		 push	 eax
  00031	68 82 00 00 00	 push	 130			; 00000082H
  00036	8b 4d f0	 mov	 ecx, DWORD PTR _this$[ebp]
  00039	e8 00 00 00 00	 call	 ??0CDialog@@QAE@IPAVCWnd@@@Z ; CDialog::CDialog
  0003e	c7 45 fc 00 00
	00 00		 mov	 DWORD PTR __$EHRec$[ebp+8], 0

; 32   : {

  00045	8b 4d f0	 mov	 ecx, DWORD PTR _this$[ebp]
  00048	c7 01 00 00 00
	00		 mov	 DWORD PTR [ecx], OFFSET ??_7NewDialog@@6B@
  0004e	8b 4d f0	 mov	 ecx, DWORD PTR _this$[ebp]
  00051	81 c1 a8 00 00
	00		 add	 ecx, 168		; 000000a8H
  00057	e8 00 00 00 00	 call	 ??0CButton@@QAE@XZ	; CButton::CButton

; 33   : 	//{{AFX_DATA_INIT(NewDialog)
; 34   : 	m_randomSeed = 0;

  0005c	8b 55 f0	 mov	 edx, DWORD PTR _this$[ebp]
  0005f	c7 82 28 01 00
	00 00 00 00 00	 mov	 DWORD PTR [edx+296], 0

; 35   : 	m_width = 0;

  00069	8b 45 f0	 mov	 eax, DWORD PTR _this$[ebp]
  0006c	c7 80 2c 01 00
	00 00 00 00 00	 mov	 DWORD PTR [eax+300], 0

; 36   : 	m_randomize = 0;

  00076	8b 4d f0	 mov	 ecx, DWORD PTR _this$[ebp]
  00079	c7 81 30 01 00
	00 00 00 00 00	 mov	 DWORD PTR [ecx+304], 0

; 37   : 	m_height = 0;

  00083	8b 55 f0	 mov	 edx, DWORD PTR _this$[ebp]
  00086	c7 82 34 01 00
	00 00 00 00 00	 mov	 DWORD PTR [edx+308], 0

; 38   : 	//}}AFX_DATA_INIT
; 39   : }

  00090	c7 45 fc ff ff
	ff ff		 mov	 DWORD PTR __$EHRec$[ebp+8], -1
  00097	8b 45 f0	 mov	 eax, DWORD PTR _this$[ebp]
  0009a	8b 4d f4	 mov	 ecx, DWORD PTR __$EHRec$[ebp]
  0009d	64 89 0d 00 00
	00 00		 mov	 DWORD PTR fs:0, ecx
  000a4	59		 pop	 ecx
  000a5	83 c4 10	 add	 esp, 16			; 00000010H
  000a8	3b ec		 cmp	 ebp, esp
  000aa	e8 00 00 00 00	 call	 __RTC_CheckEsp
  000af	8b e5		 mov	 esp, ebp
  000b1	5d		 pop	 ebp
  000b2	c2 04 00	 ret	 4
_TEXT	ENDS
text$x	SEGMENT
__unwindfunclet$??0NewDialog@@QAE@PAVCWnd@@@Z$0:
  00000	8b 4d f0	 mov	 ecx, DWORD PTR _this$[ebp]
  00003	e9 00 00 00 00	 jmp	 ??1CDialog@@UAE@XZ	; CDialog::~CDialog
  00008	cc		 int	 3
  00009	cc		 int	 3
  0000a	cc		 int	 3
  0000b	cc		 int	 3
  0000c	cc		 int	 3
__ehhandler$??0NewDialog@@QAE@PAVCWnd@@@Z:
  0000d	90		 npad	 1
  0000e	90		 npad	 1
  0000f	8b 54 24 08	 mov	 edx, DWORD PTR [esp+8]
  00013	8d 42 0c	 lea	 eax, DWORD PTR [edx+12]
  00016	8b 4a f8	 mov	 ecx, DWORD PTR [edx-8]
  00019	33 c8		 xor	 ecx, eax
  0001b	e8 00 00 00 00	 call	 @__security_check_cookie@4
  00020	b8 00 00 00 00	 mov	 eax, OFFSET __ehfuncinfo$??0NewDialog@@QAE@PAVCWnd@@@Z
  00025	e9 00 00 00 00	 jmp	 ___CxxFrameHandler3
text$x	ENDS
??0NewDialog@@QAE@PAVCWnd@@@Z ENDP			; NewDialog::NewDialog
; Function compile flags: /Odtp /RTCsu
; File C:\Users\15485\Desktop\工程之星点格棋\工程之星点格棋\NewDialog.cpp
;	COMDAT ?__empty_global_delete@@YAXPAXI@Z
_TEXT	SEGMENT
___formal$ = 8						; size = 4
___formal$ = 12						; size = 4
?__empty_global_delete@@YAXPAXI@Z PROC			; __empty_global_delete, COMDAT

  00000	55		 push	 ebp
  00001	8b ec		 mov	 ebp, esp
  00003	5d		 pop	 ebp
  00004	c3		 ret	 0
?__empty_global_delete@@YAXPAXI@Z ENDP			; __empty_global_delete
_TEXT	ENDS
; Function compile flags: /Odtp /RTCsu
; File C:\Users\15485\Desktop\工程之星点格棋\工程之星点格棋\NewDialog.cpp
;	COMDAT ?__empty_global_delete@@YAXPAX@Z
_TEXT	SEGMENT
___formal$ = 8						; size = 4
?__empty_global_delete@@YAXPAX@Z PROC			; __empty_global_delete, COMDAT

  00000	55		 push	 ebp
  00001	8b ec		 mov	 ebp, esp
  00003	5d		 pop	 ebp
  00004	c3		 ret	 0
?__empty_global_delete@@YAXPAX@Z ENDP			; __empty_global_delete
_TEXT	ENDS
END
