; Listing generated by Microsoft (R) Optimizing Compiler Version 19.35.32217.1 

	TITLE	C:\Users\15485\Desktop\工程之星点格棋\工程之星点格棋\Debug\OptionsDialog.obj
	.686P
	.XMM
	include listing.inc
	.model	flat

INCLUDELIB MSVCRTD
INCLUDELIB OLDNAMES

PUBLIC	?__empty_global_delete@@YAXPAX@Z		; __empty_global_delete
PUBLIC	?__empty_global_delete@@YAXPAXI@Z		; __empty_global_delete
PUBLIC	??0OptionsDialog@@QAE@PAVCWnd@@@Z		; OptionsDialog::OptionsDialog
PUBLIC	?DoDataExchange@OptionsDialog@@MAEXPAVCDataExchange@@@Z ; OptionsDialog::DoDataExchange
PUBLIC	?OnOK@OptionsDialog@@MAEXXZ			; OptionsDialog::OnOK
PUBLIC	?GetThisMessageMap@OptionsDialog@@KGPBUAFX_MSGMAP@@XZ ; OptionsDialog::GetThisMessageMap
PUBLIC	?GetMessageMap@OptionsDialog@@MBEPBUAFX_MSGMAP@@XZ ; OptionsDialog::GetMessageMap
PUBLIC	??1OptionsDialog@@UAE@XZ			; OptionsDialog::~OptionsDialog
PUBLIC	??_GOptionsDialog@@UAEPAXI@Z			; OptionsDialog::`scalar deleting destructor'
PUBLIC	?TimeLimit@CNewBoxesDoc@@QAEHXZ			; CNewBoxesDoc::TimeLimit
PUBLIC	?AutoPlay@CNewBoxesDoc@@QAE_NXZ			; CNewBoxesDoc::AutoPlay
PUBLIC	?TimeLimit@CNewBoxesDoc@@QAEXH@Z		; CNewBoxesDoc::TimeLimit
PUBLIC	?AutoPlay@CNewBoxesDoc@@QAEX_N@Z		; CNewBoxesDoc::AutoPlay
PUBLIC	??_R1A@?0A@EA@CObject@@8			; CObject::`RTTI Base Class Descriptor at (0,-1,0,64)'
PUBLIC	??_R0?AVCObject@@@8				; CObject `RTTI Type Descriptor'
PUBLIC	??_R3CObject@@8					; CObject::`RTTI Class Hierarchy Descriptor'
PUBLIC	??_R2CObject@@8					; CObject::`RTTI Base Class Array'
PUBLIC	??_R1A@?0A@EA@CDialog@@8			; CDialog::`RTTI Base Class Descriptor at (0,-1,0,64)'
PUBLIC	??_R0?AVCDialog@@@8				; CDialog `RTTI Type Descriptor'
PUBLIC	??_R3CDialog@@8					; CDialog::`RTTI Class Hierarchy Descriptor'
PUBLIC	??_R2CDialog@@8					; CDialog::`RTTI Base Class Array'
PUBLIC	??_R1A@?0A@EA@CWnd@@8				; CWnd::`RTTI Base Class Descriptor at (0,-1,0,64)'
PUBLIC	??_R0?AVCWnd@@@8				; CWnd `RTTI Type Descriptor'
PUBLIC	??_R3CWnd@@8					; CWnd::`RTTI Class Hierarchy Descriptor'
PUBLIC	??_R2CWnd@@8					; CWnd::`RTTI Base Class Array'
PUBLIC	??_R1A@?0A@EA@CCmdTarget@@8			; CCmdTarget::`RTTI Base Class Descriptor at (0,-1,0,64)'
PUBLIC	??_R0?AVCCmdTarget@@@8				; CCmdTarget `RTTI Type Descriptor'
PUBLIC	??_R3CCmdTarget@@8				; CCmdTarget::`RTTI Class Hierarchy Descriptor'
PUBLIC	??_R2CCmdTarget@@8				; CCmdTarget::`RTTI Base Class Array'
PUBLIC	??_7OptionsDialog@@6B@				; OptionsDialog::`vftable'
PUBLIC	??_R4OptionsDialog@@6B@				; OptionsDialog::`RTTI Complete Object Locator'
PUBLIC	??_R0?AVOptionsDialog@@@8			; OptionsDialog `RTTI Type Descriptor'
PUBLIC	??_R3OptionsDialog@@8				; OptionsDialog::`RTTI Class Hierarchy Descriptor'
PUBLIC	??_R2OptionsDialog@@8				; OptionsDialog::`RTTI Base Class Array'
PUBLIC	??_R1A@?0A@EA@OptionsDialog@@8			; OptionsDialog::`RTTI Base Class Descriptor at (0,-1,0,64)'
EXTRN	?__global_delete@@YAXPAXI@Z:PROC		; __global_delete
EXTRN	??3CObject@@SGXPAX@Z:PROC			; CObject::operator delete
EXTRN	?Serialize@CObject@@UAEXAAVCArchive@@@Z:PROC	; CObject::Serialize
EXTRN	?DDX_Text@@YGXPAVCDataExchange@@HAAI@Z:PROC	; DDX_Text
EXTRN	?DDX_Check@@YGXPAVCDataExchange@@HAAH@Z:PROC	; DDX_Check
EXTRN	?DDV_MinMaxUInt@@YGXPAVCDataExchange@@III@Z:PROC ; DDV_MinMaxUInt
EXTRN	?IsInvokeAllowed@CCmdTarget@@UAEHJ@Z:PROC	; CCmdTarget::IsInvokeAllowed
EXTRN	?GetDispatchIID@CCmdTarget@@UAEHPAU_GUID@@@Z:PROC ; CCmdTarget::GetDispatchIID
EXTRN	?GetTypeInfoCount@CCmdTarget@@UAEIXZ:PROC	; CCmdTarget::GetTypeInfoCount
EXTRN	?GetTypeLibCache@CCmdTarget@@UAEPAVCTypeLibCache@@XZ:PROC ; CCmdTarget::GetTypeLibCache
EXTRN	?GetTypeLib@CCmdTarget@@UAEJKPAPAUITypeLib@@@Z:PROC ; CCmdTarget::GetTypeLib
EXTRN	?GetCommandMap@CCmdTarget@@MBEPBUAFX_OLECMDMAP@@XZ:PROC ; CCmdTarget::GetCommandMap
EXTRN	?GetDispatchMap@CCmdTarget@@MBEPBUAFX_DISPMAP@@XZ:PROC ; CCmdTarget::GetDispatchMap
EXTRN	?GetConnectionMap@CCmdTarget@@MBEPBUAFX_CONNECTIONMAP@@XZ:PROC ; CCmdTarget::GetConnectionMap
EXTRN	?GetEventSinkMap@CCmdTarget@@MBEPBUAFX_EVENTSINKMAP@@XZ:PROC ; CCmdTarget::GetEventSinkMap
EXTRN	?OnCreateAggregates@CCmdTarget@@UAEHXZ:PROC	; CCmdTarget::OnCreateAggregates
EXTRN	?GetInterfaceHook@CCmdTarget@@UAEPAUIUnknown@@PBX@Z:PROC ; CCmdTarget::GetInterfaceHook
EXTRN	?GetExtraConnectionPoints@CCmdTarget@@MAEHPAVCPtrArray@@@Z:PROC ; CCmdTarget::GetExtraConnectionPoints
EXTRN	?GetConnectionHook@CCmdTarget@@MAEPAUIConnectionPoint@@ABU_GUID@@@Z:PROC ; CCmdTarget::GetConnectionHook
EXTRN	?PreSubclassWindow@CWnd@@UAEXXZ:PROC		; CWnd::PreSubclassWindow
EXTRN	?Create@CWnd@@UAEHPBD0KABUtagRECT@@PAV1@IPAUCCreateContext@@@Z:PROC ; CWnd::Create
EXTRN	?CreateEx@CWnd@@UAEHKPBD0KHHHHPAUHWND__@@PAUHMENU__@@PAX@Z:PROC ; CWnd::CreateEx
EXTRN	?CreateEx@CWnd@@UAEHKPBD0KABUtagRECT@@PAV1@IPAX@Z:PROC ; CWnd::CreateEx
EXTRN	?DestroyWindow@CWnd@@UAEHXZ:PROC		; CWnd::DestroyWindow
EXTRN	?PreCreateWindow@CWnd@@UAEHAAUtagCREATESTRUCTA@@@Z:PROC ; CWnd::PreCreateWindow
EXTRN	?CalcWindowRect@CWnd@@UAEXPAUtagRECT@@I@Z:PROC	; CWnd::CalcWindowRect
EXTRN	?GetMenu@CWnd@@UBEPAVCMenu@@XZ:PROC		; CWnd::GetMenu
EXTRN	?SetMenu@CWnd@@UAEHPAVCMenu@@@Z:PROC		; CWnd::SetMenu
EXTRN	?OnToolHitTest@CWnd@@UBEHVCPoint@@PAUtagTOOLINFOA@@@Z:PROC ; CWnd::OnToolHitTest
EXTRN	?GetScrollBarCtrl@CWnd@@UBEPAVCScrollBar@@H@Z:PROC ; CWnd::GetScrollBarCtrl
EXTRN	?UpdateData@CWnd@@QAEHH@Z:PROC			; CWnd::UpdateData
EXTRN	?WinHelpA@CWnd@@UAEXKI@Z:PROC			; CWnd::WinHelpA
EXTRN	?HtmlHelpA@CWnd@@UAEXKI@Z:PROC			; CWnd::HtmlHelpA
EXTRN	?WinHelpInternal@CWnd@@UAEXKI@Z:PROC		; CWnd::WinHelpInternal
EXTRN	?ContinueModal@CWnd@@UAEHXZ:PROC		; CWnd::ContinueModal
EXTRN	?EndModalLoop@CWnd@@UAEXH@Z:PROC		; CWnd::EndModalLoop
EXTRN	?OnDrawIconicThumbnailOrLivePreview@CWnd@@UAEXAAVCDC@@VCRect@@VCSize@@HAAH@Z:PROC ; CWnd::OnDrawIconicThumbnailOrLivePreview
EXTRN	?GetInterfaceMap@CWnd@@MBEPBUAFX_INTERFACEMAP@@XZ:PROC ; CWnd::GetInterfaceMap
EXTRN	?EnsureStdObj@CWnd@@UAEJXZ:PROC			; CWnd::EnsureStdObj
EXTRN	?get_accParent@CWnd@@UAEJPAPAUIDispatch@@@Z:PROC ; CWnd::get_accParent
EXTRN	?get_accChildCount@CWnd@@UAEJPAJ@Z:PROC		; CWnd::get_accChildCount
EXTRN	?get_accChild@CWnd@@UAEJUtagVARIANT@@PAPAUIDispatch@@@Z:PROC ; CWnd::get_accChild
EXTRN	?get_accName@CWnd@@UAEJUtagVARIANT@@PAPA_W@Z:PROC ; CWnd::get_accName
EXTRN	?get_accValue@CWnd@@UAEJUtagVARIANT@@PAPA_W@Z:PROC ; CWnd::get_accValue
EXTRN	?get_accDescription@CWnd@@UAEJUtagVARIANT@@PAPA_W@Z:PROC ; CWnd::get_accDescription
EXTRN	?get_accRole@CWnd@@UAEJUtagVARIANT@@PAU2@@Z:PROC ; CWnd::get_accRole
EXTRN	?get_accState@CWnd@@UAEJUtagVARIANT@@PAU2@@Z:PROC ; CWnd::get_accState
EXTRN	?get_accHelp@CWnd@@UAEJUtagVARIANT@@PAPA_W@Z:PROC ; CWnd::get_accHelp
EXTRN	?get_accHelpTopic@CWnd@@UAEJPAPA_WUtagVARIANT@@PAJ@Z:PROC ; CWnd::get_accHelpTopic
EXTRN	?get_accKeyboardShortcut@CWnd@@UAEJUtagVARIANT@@PAPA_W@Z:PROC ; CWnd::get_accKeyboardShortcut
EXTRN	?get_accFocus@CWnd@@UAEJPAUtagVARIANT@@@Z:PROC	; CWnd::get_accFocus
EXTRN	?get_accSelection@CWnd@@UAEJPAUtagVARIANT@@@Z:PROC ; CWnd::get_accSelection
EXTRN	?get_accDefaultAction@CWnd@@UAEJUtagVARIANT@@PAPA_W@Z:PROC ; CWnd::get_accDefaultAction
EXTRN	?accSelect@CWnd@@UAEJJUtagVARIANT@@@Z:PROC	; CWnd::accSelect
EXTRN	?accLocation@CWnd@@UAEJPAJ000UtagVARIANT@@@Z:PROC ; CWnd::accLocation
EXTRN	?accNavigate@CWnd@@UAEJJUtagVARIANT@@PAU2@@Z:PROC ; CWnd::accNavigate
EXTRN	?accHitTest@CWnd@@UAEJJJPAUtagVARIANT@@@Z:PROC	; CWnd::accHitTest
EXTRN	?accDoDefaultAction@CWnd@@UAEJUtagVARIANT@@@Z:PROC ; CWnd::accDoDefaultAction
EXTRN	?put_accName@CWnd@@UAEJUtagVARIANT@@PA_W@Z:PROC	; CWnd::put_accName
EXTRN	?put_accValue@CWnd@@UAEJUtagVARIANT@@PA_W@Z:PROC ; CWnd::put_accValue
EXTRN	?SetProxy@CWnd@@UAEJPAUIAccessibleProxy@@@Z:PROC ; CWnd::SetProxy
EXTRN	?CreateAccessibleProxy@CWnd@@UAEJIJPAJ@Z:PROC	; CWnd::CreateAccessibleProxy
EXTRN	?OnCommand@CWnd@@MAEHIJ@Z:PROC			; CWnd::OnCommand
EXTRN	?OnNotify@CWnd@@MAEHIJPAJ@Z:PROC		; CWnd::OnNotify
EXTRN	?GetSuperWndProcAddr@CWnd@@MAEPAP6GJPAUHWND__@@IIJ@ZXZ:PROC ; CWnd::GetSuperWndProcAddr
EXTRN	?DoDataExchange@CWnd@@MAEXPAVCDataExchange@@@Z:PROC ; CWnd::DoDataExchange
EXTRN	?BeginModalState@CWnd@@UAEXXZ:PROC		; CWnd::BeginModalState
EXTRN	?EndModalState@CWnd@@UAEXXZ:PROC		; CWnd::EndModalState
EXTRN	?OnAmbientProperty@CWnd@@UAEHPAVCOleControlSite@@JPAUtagVARIANT@@@Z:PROC ; CWnd::OnAmbientProperty
EXTRN	?WindowProc@CWnd@@MAEJIIJ@Z:PROC		; CWnd::WindowProc
EXTRN	?OnWndMsg@CWnd@@MAEHIIJPAJ@Z:PROC		; CWnd::OnWndMsg
EXTRN	?DefWindowProcA@CWnd@@MAEJIIJ@Z:PROC		; CWnd::DefWindowProcA
EXTRN	?PostNcDestroy@CWnd@@MAEXXZ:PROC		; CWnd::PostNcDestroy
EXTRN	?OnChildNotify@CWnd@@MAEHIIJPAJ@Z:PROC		; CWnd::OnChildNotify
EXTRN	?OnTouchInputs@CWnd@@MAEHIPAUtagTOUCHINPUT@@@Z:PROC ; CWnd::OnTouchInputs
EXTRN	?OnTouchInput@CWnd@@MAEHVCPoint@@HHPAUtagTOUCHINPUT@@@Z:PROC ; CWnd::OnTouchInput
EXTRN	?GetGestureStatus@CWnd@@MAEKVCPoint@@@Z:PROC	; CWnd::GetGestureStatus
EXTRN	?OnGestureZoom@CWnd@@MAEHVCPoint@@J@Z:PROC	; CWnd::OnGestureZoom
EXTRN	?OnGesturePan@CWnd@@MAEHVCPoint@@0@Z:PROC	; CWnd::OnGesturePan
EXTRN	?OnGestureRotate@CWnd@@MAEHVCPoint@@N@Z:PROC	; CWnd::OnGestureRotate
EXTRN	?OnGestureTwoFingerTap@CWnd@@MAEHVCPoint@@@Z:PROC ; CWnd::OnGestureTwoFingerTap
EXTRN	?OnGesturePressAndTap@CWnd@@MAEHVCPoint@@J@Z:PROC ; CWnd::OnGesturePressAndTap
EXTRN	?ResizeDynamicLayout@CWnd@@MAEXXZ:PROC		; CWnd::ResizeDynamicLayout
EXTRN	?IsFrameWnd@CWnd@@UBEHXZ:PROC			; CWnd::IsFrameWnd
EXTRN	?OnFinalRelease@CWnd@@UAEXXZ:PROC		; CWnd::OnFinalRelease
EXTRN	?CreateControlContainer@CWnd@@MAEHPAPAVCOleControlContainer@@@Z:PROC ; CWnd::CreateControlContainer
EXTRN	?CreateControlSite@CWnd@@MAEHPAVCOleControlContainer@@PAPAVCOleControlSite@@IABU_GUID@@@Z:PROC ; CWnd::CreateControlSite
EXTRN	?GetRuntimeClass@CDialog@@UBEPAUCRuntimeClass@@XZ:PROC ; CDialog::GetRuntimeClass
EXTRN	?Create@CDialog@@UAEHPBDPAVCWnd@@@Z:PROC	; CDialog::Create
EXTRN	?Create@CDialog@@UAEHIPAVCWnd@@@Z:PROC		; CDialog::Create
EXTRN	?CreateIndirect@CDialog@@UAEHPBUDLGTEMPLATE@@PAVCWnd@@PAX@Z:PROC ; CDialog::CreateIndirect
EXTRN	?CreateIndirect@CDialog@@UAEHPAXPAVCWnd@@@Z:PROC ; CDialog::CreateIndirect
EXTRN	??0CDialog@@QAE@IPAVCWnd@@@Z:PROC		; CDialog::CDialog
EXTRN	?DoModal@CDialog@@UAEHXZ:PROC			; CDialog::DoModal
EXTRN	?OnInitDialog@CDialog@@UAEHXZ:PROC		; CDialog::OnInitDialog
EXTRN	?OnSetFont@CDialog@@UAEXPAVCFont@@@Z:PROC	; CDialog::OnSetFont
EXTRN	?OnOK@CDialog@@MAEXXZ:PROC			; CDialog::OnOK
EXTRN	?OnCancel@CDialog@@MAEXXZ:PROC			; CDialog::OnCancel
EXTRN	??1CDialog@@UAE@XZ:PROC				; CDialog::~CDialog
EXTRN	?AssertValid@CDialog@@UBEXXZ:PROC		; CDialog::AssertValid
EXTRN	?Dump@CDialog@@UBEXAAVCDumpContext@@@Z:PROC	; CDialog::Dump
EXTRN	?PreTranslateMessage@CDialog@@UAEHPAUtagMSG@@@Z:PROC ; CDialog::PreTranslateMessage
EXTRN	?OnCmdMsg@CDialog@@UAEHIHPAXPAUAFX_CMDHANDLERINFO@@@Z:PROC ; CDialog::OnCmdMsg
EXTRN	?CheckAutoCenter@CDialog@@UAEHXZ:PROC		; CDialog::CheckAutoCenter
EXTRN	?SetOccDialogInfo@CDialog@@MAEHPAU_AFX_OCC_DIALOG_INFO@@@Z:PROC ; CDialog::SetOccDialogInfo
EXTRN	?GetOccDialogInfo@CDialog@@MAEPAU_AFX_OCC_DIALOG_INFO@@XZ:PROC ; CDialog::GetOccDialogInfo
EXTRN	?PreInitDialog@CDialog@@MAEXXZ:PROC		; CDialog::PreInitDialog
EXTRN	?GetThisMessageMap@CDialog@@KGPBUAFX_MSGMAP@@XZ:PROC ; CDialog::GetThisMessageMap
EXTRN	??_EOptionsDialog@@UAEPAXI@Z:PROC		; OptionsDialog::`vector deleting destructor'
EXTRN	@__security_check_cookie@4:PROC
EXTRN	__RTC_CheckEsp:PROC
EXTRN	__RTC_InitBase:PROC
EXTRN	__RTC_Shutdown:PROC
EXTRN	___CxxFrameHandler3:PROC
EXTRN	??_7type_info@@6B@:QWORD			; type_info::`vftable'
EXTRN	?pDoc@@3PAVCNewBoxesDoc@@A:DWORD		; pDoc
EXTRN	___security_cookie:DWORD
;	COMDAT rtc$TMZ
rtc$TMZ	SEGMENT
__RTC_Shutdown.rtc$TMZ DD FLAT:__RTC_Shutdown
rtc$TMZ	ENDS
;	COMDAT rtc$IMZ
rtc$IMZ	SEGMENT
__RTC_InitBase.rtc$IMZ DD FLAT:__RTC_InitBase
rtc$IMZ	ENDS
;	COMDAT ??_R1A@?0A@EA@OptionsDialog@@8
rdata$r	SEGMENT
??_R1A@?0A@EA@OptionsDialog@@8 DD FLAT:??_R0?AVOptionsDialog@@@8 ; OptionsDialog::`RTTI Base Class Descriptor at (0,-1,0,64)'
	DD	04H
	DD	00H
	DD	0ffffffffH
	DD	00H
	DD	040H
	DD	FLAT:??_R3OptionsDialog@@8
rdata$r	ENDS
;	COMDAT ??_R2OptionsDialog@@8
rdata$r	SEGMENT
??_R2OptionsDialog@@8 DD FLAT:??_R1A@?0A@EA@OptionsDialog@@8 ; OptionsDialog::`RTTI Base Class Array'
	DD	FLAT:??_R1A@?0A@EA@CDialog@@8
	DD	FLAT:??_R1A@?0A@EA@CWnd@@8
	DD	FLAT:??_R1A@?0A@EA@CCmdTarget@@8
	DD	FLAT:??_R1A@?0A@EA@CObject@@8
rdata$r	ENDS
;	COMDAT ??_R3OptionsDialog@@8
rdata$r	SEGMENT
??_R3OptionsDialog@@8 DD 00H				; OptionsDialog::`RTTI Class Hierarchy Descriptor'
	DD	00H
	DD	05H
	DD	FLAT:??_R2OptionsDialog@@8
rdata$r	ENDS
;	COMDAT ??_R0?AVOptionsDialog@@@8
data$rs	SEGMENT
??_R0?AVOptionsDialog@@@8 DD FLAT:??_7type_info@@6B@	; OptionsDialog `RTTI Type Descriptor'
	DD	00H
	DB	'.?AVOptionsDialog@@', 00H
data$rs	ENDS
;	COMDAT ??_R4OptionsDialog@@6B@
rdata$r	SEGMENT
??_R4OptionsDialog@@6B@ DD 00H				; OptionsDialog::`RTTI Complete Object Locator'
	DD	00H
	DD	00H
	DD	FLAT:??_R0?AVOptionsDialog@@@8
	DD	FLAT:??_R3OptionsDialog@@8
rdata$r	ENDS
;	COMDAT ?messageMap@?1??GetThisMessageMap@OptionsDialog@@KGPBUAFX_MSGMAP@@XZ@4U3@B
CONST	SEGMENT
?messageMap@?1??GetThisMessageMap@OptionsDialog@@KGPBUAFX_MSGMAP@@XZ@4U3@B DD FLAT:?GetThisMessageMap@CDialog@@KGPBUAFX_MSGMAP@@XZ ; `OptionsDialog::GetThisMessageMap'::`2'::messageMap
	DD	FLAT:?_messageEntries@?1??GetThisMessageMap@OptionsDialog@@KGPBUAFX_MSGMAP@@XZ@4QBUAFX_MSGMAP_ENTRY@@B
CONST	ENDS
;	COMDAT ?_messageEntries@?1??GetThisMessageMap@OptionsDialog@@KGPBUAFX_MSGMAP@@XZ@4QBUAFX_MSGMAP_ENTRY@@B
CONST	SEGMENT
?_messageEntries@?1??GetThisMessageMap@OptionsDialog@@KGPBUAFX_MSGMAP@@XZ@4QBUAFX_MSGMAP_ENTRY@@B DD 00H ; `OptionsDialog::GetThisMessageMap'::`2'::_messageEntries
	DD	00H
	DD	00H
	DD	00H
	DD	00H
	DD	00H
CONST	ENDS
;	COMDAT ??_7OptionsDialog@@6B@
CONST	SEGMENT
??_7OptionsDialog@@6B@ DD FLAT:??_R4OptionsDialog@@6B@	; OptionsDialog::`vftable'
	DD	FLAT:?GetRuntimeClass@CDialog@@UBEPAUCRuntimeClass@@XZ
	DD	FLAT:??_EOptionsDialog@@UAEPAXI@Z
	DD	FLAT:?Serialize@CObject@@UAEXAAVCArchive@@@Z
	DD	FLAT:?AssertValid@CDialog@@UBEXXZ
	DD	FLAT:?Dump@CDialog@@UBEXAAVCDumpContext@@@Z
	DD	FLAT:?OnCmdMsg@CDialog@@UAEHIHPAXPAUAFX_CMDHANDLERINFO@@@Z
	DD	FLAT:?OnFinalRelease@CWnd@@UAEXXZ
	DD	FLAT:?IsInvokeAllowed@CCmdTarget@@UAEHJ@Z
	DD	FLAT:?GetDispatchIID@CCmdTarget@@UAEHPAU_GUID@@@Z
	DD	FLAT:?GetTypeInfoCount@CCmdTarget@@UAEIXZ
	DD	FLAT:?GetTypeLibCache@CCmdTarget@@UAEPAVCTypeLibCache@@XZ
	DD	FLAT:?GetTypeLib@CCmdTarget@@UAEJKPAPAUITypeLib@@@Z
	DD	FLAT:?GetMessageMap@OptionsDialog@@MBEPBUAFX_MSGMAP@@XZ
	DD	FLAT:?GetCommandMap@CCmdTarget@@MBEPBUAFX_OLECMDMAP@@XZ
	DD	FLAT:?GetDispatchMap@CCmdTarget@@MBEPBUAFX_DISPMAP@@XZ
	DD	FLAT:?GetConnectionMap@CCmdTarget@@MBEPBUAFX_CONNECTIONMAP@@XZ
	DD	FLAT:?GetInterfaceMap@CWnd@@MBEPBUAFX_INTERFACEMAP@@XZ
	DD	FLAT:?GetEventSinkMap@CCmdTarget@@MBEPBUAFX_EVENTSINKMAP@@XZ
	DD	FLAT:?OnCreateAggregates@CCmdTarget@@UAEHXZ
	DD	FLAT:?GetInterfaceHook@CCmdTarget@@UAEPAUIUnknown@@PBX@Z
	DD	FLAT:?GetExtraConnectionPoints@CCmdTarget@@MAEHPAVCPtrArray@@@Z
	DD	FLAT:?GetConnectionHook@CCmdTarget@@MAEPAUIConnectionPoint@@ABU_GUID@@@Z
	DD	FLAT:?PreSubclassWindow@CWnd@@UAEXXZ
	DD	FLAT:?Create@CWnd@@UAEHPBD0KABUtagRECT@@PAV1@IPAUCCreateContext@@@Z
	DD	FLAT:?CreateEx@CWnd@@UAEHKPBD0KABUtagRECT@@PAV1@IPAX@Z
	DD	FLAT:?CreateEx@CWnd@@UAEHKPBD0KHHHHPAUHWND__@@PAUHMENU__@@PAX@Z
	DD	FLAT:?DestroyWindow@CWnd@@UAEHXZ
	DD	FLAT:?PreCreateWindow@CWnd@@UAEHAAUtagCREATESTRUCTA@@@Z
	DD	FLAT:?CalcWindowRect@CWnd@@UAEXPAUtagRECT@@I@Z
	DD	FLAT:?GetMenu@CWnd@@UBEPAVCMenu@@XZ
	DD	FLAT:?SetMenu@CWnd@@UAEHPAVCMenu@@@Z
	DD	FLAT:?OnToolHitTest@CWnd@@UBEHVCPoint@@PAUtagTOOLINFOA@@@Z
	DD	FLAT:?GetScrollBarCtrl@CWnd@@UBEPAVCScrollBar@@H@Z
	DD	FLAT:?WinHelpA@CWnd@@UAEXKI@Z
	DD	FLAT:?HtmlHelpA@CWnd@@UAEXKI@Z
	DD	FLAT:?WinHelpInternal@CWnd@@UAEXKI@Z
	DD	FLAT:?ContinueModal@CWnd@@UAEHXZ
	DD	FLAT:?EndModalLoop@CWnd@@UAEXH@Z
	DD	FLAT:?OnDrawIconicThumbnailOrLivePreview@CWnd@@UAEXAAVCDC@@VCRect@@VCSize@@HAAH@Z
	DD	FLAT:?EnsureStdObj@CWnd@@UAEJXZ
	DD	FLAT:?get_accParent@CWnd@@UAEJPAPAUIDispatch@@@Z
	DD	FLAT:?get_accChildCount@CWnd@@UAEJPAJ@Z
	DD	FLAT:?get_accChild@CWnd@@UAEJUtagVARIANT@@PAPAUIDispatch@@@Z
	DD	FLAT:?get_accName@CWnd@@UAEJUtagVARIANT@@PAPA_W@Z
	DD	FLAT:?get_accValue@CWnd@@UAEJUtagVARIANT@@PAPA_W@Z
	DD	FLAT:?get_accDescription@CWnd@@UAEJUtagVARIANT@@PAPA_W@Z
	DD	FLAT:?get_accRole@CWnd@@UAEJUtagVARIANT@@PAU2@@Z
	DD	FLAT:?get_accState@CWnd@@UAEJUtagVARIANT@@PAU2@@Z
	DD	FLAT:?get_accHelp@CWnd@@UAEJUtagVARIANT@@PAPA_W@Z
	DD	FLAT:?get_accHelpTopic@CWnd@@UAEJPAPA_WUtagVARIANT@@PAJ@Z
	DD	FLAT:?get_accKeyboardShortcut@CWnd@@UAEJUtagVARIANT@@PAPA_W@Z
	DD	FLAT:?get_accFocus@CWnd@@UAEJPAUtagVARIANT@@@Z
	DD	FLAT:?get_accSelection@CWnd@@UAEJPAUtagVARIANT@@@Z
	DD	FLAT:?get_accDefaultAction@CWnd@@UAEJUtagVARIANT@@PAPA_W@Z
	DD	FLAT:?accSelect@CWnd@@UAEJJUtagVARIANT@@@Z
	DD	FLAT:?accLocation@CWnd@@UAEJPAJ000UtagVARIANT@@@Z
	DD	FLAT:?accNavigate@CWnd@@UAEJJUtagVARIANT@@PAU2@@Z
	DD	FLAT:?accHitTest@CWnd@@UAEJJJPAUtagVARIANT@@@Z
	DD	FLAT:?accDoDefaultAction@CWnd@@UAEJUtagVARIANT@@@Z
	DD	FLAT:?put_accName@CWnd@@UAEJUtagVARIANT@@PA_W@Z
	DD	FLAT:?put_accValue@CWnd@@UAEJUtagVARIANT@@PA_W@Z
	DD	FLAT:?SetProxy@CWnd@@UAEJPAUIAccessibleProxy@@@Z
	DD	FLAT:?CreateAccessibleProxy@CWnd@@UAEJIJPAJ@Z
	DD	FLAT:?OnCommand@CWnd@@MAEHIJ@Z
	DD	FLAT:?OnNotify@CWnd@@MAEHIJPAJ@Z
	DD	FLAT:?GetSuperWndProcAddr@CWnd@@MAEPAP6GJPAUHWND__@@IIJ@ZXZ
	DD	FLAT:?DoDataExchange@OptionsDialog@@MAEXPAVCDataExchange@@@Z
	DD	FLAT:?BeginModalState@CWnd@@UAEXXZ
	DD	FLAT:?EndModalState@CWnd@@UAEXXZ
	DD	FLAT:?PreTranslateMessage@CDialog@@UAEHPAUtagMSG@@@Z
	DD	FLAT:?OnAmbientProperty@CWnd@@UAEHPAVCOleControlSite@@JPAUtagVARIANT@@@Z
	DD	FLAT:?WindowProc@CWnd@@MAEJIIJ@Z
	DD	FLAT:?OnWndMsg@CWnd@@MAEHIIJPAJ@Z
	DD	FLAT:?DefWindowProcA@CWnd@@MAEJIIJ@Z
	DD	FLAT:?PostNcDestroy@CWnd@@MAEXXZ
	DD	FLAT:?OnChildNotify@CWnd@@MAEHIIJPAJ@Z
	DD	FLAT:?OnTouchInputs@CWnd@@MAEHIPAUtagTOUCHINPUT@@@Z
	DD	FLAT:?OnTouchInput@CWnd@@MAEHVCPoint@@HHPAUtagTOUCHINPUT@@@Z
	DD	FLAT:?GetGestureStatus@CWnd@@MAEKVCPoint@@@Z
	DD	FLAT:?OnGestureZoom@CWnd@@MAEHVCPoint@@J@Z
	DD	FLAT:?OnGesturePan@CWnd@@MAEHVCPoint@@0@Z
	DD	FLAT:?OnGestureRotate@CWnd@@MAEHVCPoint@@N@Z
	DD	FLAT:?OnGestureTwoFingerTap@CWnd@@MAEHVCPoint@@@Z
	DD	FLAT:?OnGesturePressAndTap@CWnd@@MAEHVCPoint@@J@Z
	DD	FLAT:?ResizeDynamicLayout@CWnd@@MAEXXZ
	DD	FLAT:?CheckAutoCenter@CDialog@@UAEHXZ
	DD	FLAT:?IsFrameWnd@CWnd@@UBEHXZ
	DD	FLAT:?CreateControlContainer@CWnd@@MAEHPAPAVCOleControlContainer@@@Z
	DD	FLAT:?CreateControlSite@CWnd@@MAEHPAVCOleControlContainer@@PAPAVCOleControlSite@@IABU_GUID@@@Z
	DD	FLAT:?SetOccDialogInfo@CDialog@@MAEHPAU_AFX_OCC_DIALOG_INFO@@@Z
	DD	FLAT:?GetOccDialogInfo@CDialog@@MAEPAU_AFX_OCC_DIALOG_INFO@@XZ
	DD	FLAT:?Create@CDialog@@UAEHIPAVCWnd@@@Z
	DD	FLAT:?Create@CDialog@@UAEHPBDPAVCWnd@@@Z
	DD	FLAT:?CreateIndirect@CDialog@@UAEHPAXPAVCWnd@@@Z
	DD	FLAT:?CreateIndirect@CDialog@@UAEHPBUDLGTEMPLATE@@PAVCWnd@@PAX@Z
	DD	FLAT:?DoModal@CDialog@@UAEHXZ
	DD	FLAT:?OnInitDialog@CDialog@@UAEHXZ
	DD	FLAT:?OnSetFont@CDialog@@UAEXPAVCFont@@@Z
	DD	FLAT:?OnOK@OptionsDialog@@MAEXXZ
	DD	FLAT:?OnCancel@CDialog@@MAEXXZ
	DD	FLAT:?PreInitDialog@CDialog@@MAEXXZ
CONST	ENDS
;	COMDAT ??_R2CCmdTarget@@8
rdata$r	SEGMENT
??_R2CCmdTarget@@8 DD FLAT:??_R1A@?0A@EA@CCmdTarget@@8	; CCmdTarget::`RTTI Base Class Array'
	DD	FLAT:??_R1A@?0A@EA@CObject@@8
rdata$r	ENDS
;	COMDAT ??_R3CCmdTarget@@8
rdata$r	SEGMENT
??_R3CCmdTarget@@8 DD 00H				; CCmdTarget::`RTTI Class Hierarchy Descriptor'
	DD	00H
	DD	02H
	DD	FLAT:??_R2CCmdTarget@@8
rdata$r	ENDS
;	COMDAT ??_R0?AVCCmdTarget@@@8
data$rs	SEGMENT
??_R0?AVCCmdTarget@@@8 DD FLAT:??_7type_info@@6B@	; CCmdTarget `RTTI Type Descriptor'
	DD	00H
	DB	'.?AVCCmdTarget@@', 00H
data$rs	ENDS
;	COMDAT ??_R1A@?0A@EA@CCmdTarget@@8
rdata$r	SEGMENT
??_R1A@?0A@EA@CCmdTarget@@8 DD FLAT:??_R0?AVCCmdTarget@@@8 ; CCmdTarget::`RTTI Base Class Descriptor at (0,-1,0,64)'
	DD	01H
	DD	00H
	DD	0ffffffffH
	DD	00H
	DD	040H
	DD	FLAT:??_R3CCmdTarget@@8
rdata$r	ENDS
;	COMDAT ??_R2CWnd@@8
rdata$r	SEGMENT
??_R2CWnd@@8 DD	FLAT:??_R1A@?0A@EA@CWnd@@8		; CWnd::`RTTI Base Class Array'
	DD	FLAT:??_R1A@?0A@EA@CCmdTarget@@8
	DD	FLAT:??_R1A@?0A@EA@CObject@@8
rdata$r	ENDS
;	COMDAT ??_R3CWnd@@8
rdata$r	SEGMENT
??_R3CWnd@@8 DD	00H					; CWnd::`RTTI Class Hierarchy Descriptor'
	DD	00H
	DD	03H
	DD	FLAT:??_R2CWnd@@8
rdata$r	ENDS
;	COMDAT ??_R0?AVCWnd@@@8
data$rs	SEGMENT
??_R0?AVCWnd@@@8 DD FLAT:??_7type_info@@6B@		; CWnd `RTTI Type Descriptor'
	DD	00H
	DB	'.?AVCWnd@@', 00H
data$rs	ENDS
;	COMDAT ??_R1A@?0A@EA@CWnd@@8
rdata$r	SEGMENT
??_R1A@?0A@EA@CWnd@@8 DD FLAT:??_R0?AVCWnd@@@8		; CWnd::`RTTI Base Class Descriptor at (0,-1,0,64)'
	DD	02H
	DD	00H
	DD	0ffffffffH
	DD	00H
	DD	040H
	DD	FLAT:??_R3CWnd@@8
rdata$r	ENDS
;	COMDAT ??_R2CDialog@@8
rdata$r	SEGMENT
??_R2CDialog@@8 DD FLAT:??_R1A@?0A@EA@CDialog@@8	; CDialog::`RTTI Base Class Array'
	DD	FLAT:??_R1A@?0A@EA@CWnd@@8
	DD	FLAT:??_R1A@?0A@EA@CCmdTarget@@8
	DD	FLAT:??_R1A@?0A@EA@CObject@@8
rdata$r	ENDS
;	COMDAT ??_R3CDialog@@8
rdata$r	SEGMENT
??_R3CDialog@@8 DD 00H					; CDialog::`RTTI Class Hierarchy Descriptor'
	DD	00H
	DD	04H
	DD	FLAT:??_R2CDialog@@8
rdata$r	ENDS
;	COMDAT ??_R0?AVCDialog@@@8
data$rs	SEGMENT
??_R0?AVCDialog@@@8 DD FLAT:??_7type_info@@6B@		; CDialog `RTTI Type Descriptor'
	DD	00H
	DB	'.?AVCDialog@@', 00H
data$rs	ENDS
;	COMDAT ??_R1A@?0A@EA@CDialog@@8
rdata$r	SEGMENT
??_R1A@?0A@EA@CDialog@@8 DD FLAT:??_R0?AVCDialog@@@8	; CDialog::`RTTI Base Class Descriptor at (0,-1,0,64)'
	DD	03H
	DD	00H
	DD	0ffffffffH
	DD	00H
	DD	040H
	DD	FLAT:??_R3CDialog@@8
rdata$r	ENDS
;	COMDAT ??_R2CObject@@8
rdata$r	SEGMENT
??_R2CObject@@8 DD FLAT:??_R1A@?0A@EA@CObject@@8	; CObject::`RTTI Base Class Array'
rdata$r	ENDS
;	COMDAT ??_R3CObject@@8
rdata$r	SEGMENT
??_R3CObject@@8 DD 00H					; CObject::`RTTI Class Hierarchy Descriptor'
	DD	00H
	DD	01H
	DD	FLAT:??_R2CObject@@8
rdata$r	ENDS
;	COMDAT ??_R0?AVCObject@@@8
data$rs	SEGMENT
??_R0?AVCObject@@@8 DD FLAT:??_7type_info@@6B@		; CObject `RTTI Type Descriptor'
	DD	00H
	DB	'.?AVCObject@@', 00H
data$rs	ENDS
;	COMDAT ??_R1A@?0A@EA@CObject@@8
rdata$r	SEGMENT
??_R1A@?0A@EA@CObject@@8 DD FLAT:??_R0?AVCObject@@@8	; CObject::`RTTI Base Class Descriptor at (0,-1,0,64)'
	DD	00H
	DD	00H
	DD	0ffffffffH
	DD	00H
	DD	040H
	DD	FLAT:??_R3CObject@@8
rdata$r	ENDS
voltbl	SEGMENT
_volmd	DD	0ffffffffH
	DDSymXIndex: 	FLAT:__unwindfunclet$??0OptionsDialog@@QAE@PAVCWnd@@@Z$0
	DD	016H
voltbl	ENDS
xdata$x	SEGMENT
__unwindtable$??0OptionsDialog@@QAE@PAVCWnd@@@Z DD 0ffffffffH
	DD	FLAT:__unwindfunclet$??0OptionsDialog@@QAE@PAVCWnd@@@Z$0
__ehfuncinfo$??0OptionsDialog@@QAE@PAVCWnd@@@Z DD 019930522H
	DD	01H
	DD	FLAT:__unwindtable$??0OptionsDialog@@QAE@PAVCWnd@@@Z
	DD	2 DUP(00H)
	DD	2 DUP(00H)
	DD	00H
	DD	01H
xdata$x	ENDS
; Function compile flags: /Odtp /RTCsu
; File C:\Users\15485\Desktop\工程之星点格棋\工程之星点格棋\NewBoxesDoc.h
;	COMDAT ?AutoPlay@CNewBoxesDoc@@QAEX_N@Z
_TEXT	SEGMENT
_this$ = -4						; size = 4
_autoplay$ = 8						; size = 1
?AutoPlay@CNewBoxesDoc@@QAEX_N@Z PROC			; CNewBoxesDoc::AutoPlay, COMDAT
; _this$ = ecx

; 74   :   void  AutoPlay(bool autoplay){m_autoPlay = autoplay;};

  00000	55		 push	 ebp
  00001	8b ec		 mov	 ebp, esp
  00003	51		 push	 ecx
  00004	89 4d fc	 mov	 DWORD PTR _this$[ebp], ecx
  00007	8b 45 fc	 mov	 eax, DWORD PTR _this$[ebp]
  0000a	8a 4d 08	 mov	 cl, BYTE PTR _autoplay$[ebp]
  0000d	88 88 28 01 00
	00		 mov	 BYTE PTR [eax+296], cl
  00013	8b e5		 mov	 esp, ebp
  00015	5d		 pop	 ebp
  00016	c2 04 00	 ret	 4
?AutoPlay@CNewBoxesDoc@@QAEX_N@Z ENDP			; CNewBoxesDoc::AutoPlay
_TEXT	ENDS
; Function compile flags: /Odtp /RTCsu
; File C:\Users\15485\Desktop\工程之星点格棋\工程之星点格棋\NewBoxesDoc.h
;	COMDAT ?TimeLimit@CNewBoxesDoc@@QAEXH@Z
_TEXT	SEGMENT
_this$ = -4						; size = 4
_tl$ = 8						; size = 4
?TimeLimit@CNewBoxesDoc@@QAEXH@Z PROC			; CNewBoxesDoc::TimeLimit, COMDAT
; _this$ = ecx

; 73   :   void  TimeLimit(int tl){m_timeLimit=tl;};

  00000	55		 push	 ebp
  00001	8b ec		 mov	 ebp, esp
  00003	51		 push	 ecx
  00004	89 4d fc	 mov	 DWORD PTR _this$[ebp], ecx
  00007	8b 45 fc	 mov	 eax, DWORD PTR _this$[ebp]
  0000a	8b 4d 08	 mov	 ecx, DWORD PTR _tl$[ebp]
  0000d	89 88 24 01 00
	00		 mov	 DWORD PTR [eax+292], ecx
  00013	8b e5		 mov	 esp, ebp
  00015	5d		 pop	 ebp
  00016	c2 04 00	 ret	 4
?TimeLimit@CNewBoxesDoc@@QAEXH@Z ENDP			; CNewBoxesDoc::TimeLimit
_TEXT	ENDS
; Function compile flags: /Odtp /RTCsu
; File C:\Users\15485\Desktop\工程之星点格棋\工程之星点格棋\NewBoxesDoc.h
;	COMDAT ?AutoPlay@CNewBoxesDoc@@QAE_NXZ
_TEXT	SEGMENT
_this$ = -4						; size = 4
?AutoPlay@CNewBoxesDoc@@QAE_NXZ PROC			; CNewBoxesDoc::AutoPlay, COMDAT
; _this$ = ecx

; 72   :   bool  AutoPlay(void){return m_autoPlay;};

  00000	55		 push	 ebp
  00001	8b ec		 mov	 ebp, esp
  00003	51		 push	 ecx
  00004	89 4d fc	 mov	 DWORD PTR _this$[ebp], ecx
  00007	8b 45 fc	 mov	 eax, DWORD PTR _this$[ebp]
  0000a	0f b6 80 28 01
	00 00		 movzx	 eax, BYTE PTR [eax+296]
  00011	8b e5		 mov	 esp, ebp
  00013	5d		 pop	 ebp
  00014	c3		 ret	 0
?AutoPlay@CNewBoxesDoc@@QAE_NXZ ENDP			; CNewBoxesDoc::AutoPlay
_TEXT	ENDS
; Function compile flags: /Odtp /RTCsu
; File C:\Users\15485\Desktop\工程之星点格棋\工程之星点格棋\NewBoxesDoc.h
;	COMDAT ?TimeLimit@CNewBoxesDoc@@QAEHXZ
_TEXT	SEGMENT
_this$ = -4						; size = 4
?TimeLimit@CNewBoxesDoc@@QAEHXZ PROC			; CNewBoxesDoc::TimeLimit, COMDAT
; _this$ = ecx

; 71   :   int   TimeLimit(void){return m_timeLimit;};

  00000	55		 push	 ebp
  00001	8b ec		 mov	 ebp, esp
  00003	51		 push	 ecx
  00004	89 4d fc	 mov	 DWORD PTR _this$[ebp], ecx
  00007	8b 45 fc	 mov	 eax, DWORD PTR _this$[ebp]
  0000a	8b 80 24 01 00
	00		 mov	 eax, DWORD PTR [eax+292]
  00010	8b e5		 mov	 esp, ebp
  00012	5d		 pop	 ebp
  00013	c3		 ret	 0
?TimeLimit@CNewBoxesDoc@@QAEHXZ ENDP			; CNewBoxesDoc::TimeLimit
_TEXT	ENDS
; Function compile flags: /Odtp /RTCsu
;	COMDAT ??_GOptionsDialog@@UAEPAXI@Z
_TEXT	SEGMENT
_this$ = -4						; size = 4
___flags$ = 8						; size = 4
??_GOptionsDialog@@UAEPAXI@Z PROC			; OptionsDialog::`scalar deleting destructor', COMDAT
; _this$ = ecx
  00000	55		 push	 ebp
  00001	8b ec		 mov	 ebp, esp
  00003	51		 push	 ecx
  00004	c7 45 fc cc cc
	cc cc		 mov	 DWORD PTR [ebp-4], -858993460 ; ccccccccH
  0000b	89 4d fc	 mov	 DWORD PTR _this$[ebp], ecx
  0000e	8b 4d fc	 mov	 ecx, DWORD PTR _this$[ebp]
  00011	e8 00 00 00 00	 call	 ??1OptionsDialog@@UAE@XZ
  00016	8b 45 08	 mov	 eax, DWORD PTR ___flags$[ebp]
  00019	83 e0 01	 and	 eax, 1
  0001c	74 24		 je	 SHORT $LN2@scalar
  0001e	8b 4d 08	 mov	 ecx, DWORD PTR ___flags$[ebp]
  00021	83 e1 04	 and	 ecx, 4
  00024	75 0b		 jne	 SHORT $LN3@scalar
  00026	8b 55 fc	 mov	 edx, DWORD PTR _this$[ebp]
  00029	52		 push	 edx
  0002a	e8 00 00 00 00	 call	 ??3CObject@@SGXPAX@Z	; CObject::operator delete
  0002f	eb 11		 jmp	 SHORT $LN2@scalar
$LN3@scalar:
  00031	68 b0 00 00 00	 push	 176			; 000000b0H
  00036	8b 45 fc	 mov	 eax, DWORD PTR _this$[ebp]
  00039	50		 push	 eax
  0003a	e8 00 00 00 00	 call	 ?__global_delete@@YAXPAXI@Z ; __global_delete
  0003f	83 c4 08	 add	 esp, 8
$LN2@scalar:
  00042	8b 45 fc	 mov	 eax, DWORD PTR _this$[ebp]
  00045	83 c4 04	 add	 esp, 4
  00048	3b ec		 cmp	 ebp, esp
  0004a	e8 00 00 00 00	 call	 __RTC_CheckEsp
  0004f	8b e5		 mov	 esp, ebp
  00051	5d		 pop	 ebp
  00052	c2 04 00	 ret	 4
??_GOptionsDialog@@UAEPAXI@Z ENDP			; OptionsDialog::`scalar deleting destructor'
_TEXT	ENDS
; Function compile flags: /Odtp /RTCsu
;	COMDAT ??1OptionsDialog@@UAE@XZ
_TEXT	SEGMENT
_this$ = -4						; size = 4
??1OptionsDialog@@UAE@XZ PROC				; OptionsDialog::~OptionsDialog, COMDAT
; _this$ = ecx
  00000	55		 push	 ebp
  00001	8b ec		 mov	 ebp, esp
  00003	51		 push	 ecx
  00004	c7 45 fc cc cc
	cc cc		 mov	 DWORD PTR [ebp-4], -858993460 ; ccccccccH
  0000b	89 4d fc	 mov	 DWORD PTR _this$[ebp], ecx
  0000e	8b 4d fc	 mov	 ecx, DWORD PTR _this$[ebp]
  00011	e8 00 00 00 00	 call	 ??1CDialog@@UAE@XZ	; CDialog::~CDialog
  00016	83 c4 04	 add	 esp, 4
  00019	3b ec		 cmp	 ebp, esp
  0001b	e8 00 00 00 00	 call	 __RTC_CheckEsp
  00020	8b e5		 mov	 esp, ebp
  00022	5d		 pop	 ebp
  00023	c3		 ret	 0
??1OptionsDialog@@UAE@XZ ENDP				; OptionsDialog::~OptionsDialog
_TEXT	ENDS
; Function compile flags: /Odtp /RTCsu
; File C:\Users\15485\Desktop\工程之星点格棋\工程之星点格棋\OptionsDialog.cpp
_TEXT	SEGMENT
_this$ = -4						; size = 4
?GetMessageMap@OptionsDialog@@MBEPBUAFX_MSGMAP@@XZ PROC	; OptionsDialog::GetMessageMap
; _this$ = ecx

; 43   : BEGIN_MESSAGE_MAP(OptionsDialog, CDialog)

  00000	55		 push	 ebp
  00001	8b ec		 mov	 ebp, esp
  00003	51		 push	 ecx
  00004	c7 45 fc cc cc
	cc cc		 mov	 DWORD PTR [ebp-4], -858993460 ; ccccccccH
  0000b	89 4d fc	 mov	 DWORD PTR _this$[ebp], ecx
  0000e	e8 00 00 00 00	 call	 ?GetThisMessageMap@OptionsDialog@@KGPBUAFX_MSGMAP@@XZ ; OptionsDialog::GetThisMessageMap
  00013	83 c4 04	 add	 esp, 4
  00016	3b ec		 cmp	 ebp, esp
  00018	e8 00 00 00 00	 call	 __RTC_CheckEsp
  0001d	8b e5		 mov	 esp, ebp
  0001f	5d		 pop	 ebp
  00020	c3		 ret	 0
?GetMessageMap@OptionsDialog@@MBEPBUAFX_MSGMAP@@XZ ENDP	; OptionsDialog::GetMessageMap
_TEXT	ENDS
; Function compile flags: /Odtp /RTCsu
; File C:\Users\15485\Desktop\工程之星点格棋\工程之星点格棋\OptionsDialog.cpp
_TEXT	SEGMENT
?GetThisMessageMap@OptionsDialog@@KGPBUAFX_MSGMAP@@XZ PROC ; OptionsDialog::GetThisMessageMap

; 43   : BEGIN_MESSAGE_MAP(OptionsDialog, CDialog)

  00000	55		 push	 ebp
  00001	8b ec		 mov	 ebp, esp

; 44   : 	//{{AFX_MSG_MAP(OptionsDialog)
; 45   : 	//}}AFX_MSG_MAP
; 46   : END_MESSAGE_MAP()

  00003	b8 00 00 00 00	 mov	 eax, OFFSET ?messageMap@?1??GetThisMessageMap@OptionsDialog@@KGPBUAFX_MSGMAP@@XZ@4U3@B
  00008	5d		 pop	 ebp
  00009	c3		 ret	 0
?GetThisMessageMap@OptionsDialog@@KGPBUAFX_MSGMAP@@XZ ENDP ; OptionsDialog::GetThisMessageMap
_TEXT	ENDS
; Function compile flags: /Odtp /RTCsu
; File C:\Users\15485\Desktop\工程之星点格棋\工程之星点格棋\OptionsDialog.cpp
_TEXT	SEGMENT
tv76 = -5						; size = 1
_this$ = -4						; size = 4
?OnOK@OptionsDialog@@MAEXXZ PROC			; OptionsDialog::OnOK
; _this$ = ecx

; 52   : {

  00000	55		 push	 ebp
  00001	8b ec		 mov	 ebp, esp
  00003	83 ec 08	 sub	 esp, 8
  00006	c7 45 f8 cc cc
	cc cc		 mov	 DWORD PTR [ebp-8], -858993460 ; ccccccccH
  0000d	c7 45 fc cc cc
	cc cc		 mov	 DWORD PTR [ebp-4], -858993460 ; ccccccccH
  00014	89 4d fc	 mov	 DWORD PTR _this$[ebp], ecx

; 53   : 	// TODO: Add extra validation here
; 54   :   UpdateData(true);

  00017	6a 01		 push	 1
  00019	8b 4d fc	 mov	 ecx, DWORD PTR _this$[ebp]
  0001c	e8 00 00 00 00	 call	 ?UpdateData@CWnd@@QAEHH@Z ; CWnd::UpdateData

; 55   : 	pDoc->TimeLimit(m_timeLimit);

  00021	8b 45 fc	 mov	 eax, DWORD PTR _this$[ebp]
  00024	8b 88 a8 00 00
	00		 mov	 ecx, DWORD PTR [eax+168]
  0002a	51		 push	 ecx
  0002b	8b 0d 00 00 00
	00		 mov	 ecx, DWORD PTR ?pDoc@@3PAVCNewBoxesDoc@@A ; pDoc
  00031	e8 00 00 00 00	 call	 ?TimeLimit@CNewBoxesDoc@@QAEXH@Z ; CNewBoxesDoc::TimeLimit

; 56   :   pDoc->AutoPlay(m_autoPlay!=0);

  00036	8b 55 fc	 mov	 edx, DWORD PTR _this$[ebp]
  00039	83 ba ac 00 00
	00 00		 cmp	 DWORD PTR [edx+172], 0
  00040	74 06		 je	 SHORT $LN3@OnOK
  00042	c6 45 fb 01	 mov	 BYTE PTR tv76[ebp], 1
  00046	eb 04		 jmp	 SHORT $LN4@OnOK
$LN3@OnOK:
  00048	c6 45 fb 00	 mov	 BYTE PTR tv76[ebp], 0
$LN4@OnOK:
  0004c	0f b6 45 fb	 movzx	 eax, BYTE PTR tv76[ebp]
  00050	50		 push	 eax
  00051	8b 0d 00 00 00
	00		 mov	 ecx, DWORD PTR ?pDoc@@3PAVCNewBoxesDoc@@A ; pDoc
  00057	e8 00 00 00 00	 call	 ?AutoPlay@CNewBoxesDoc@@QAEX_N@Z ; CNewBoxesDoc::AutoPlay

; 57   : 	CDialog::OnOK();

  0005c	8b 4d fc	 mov	 ecx, DWORD PTR _this$[ebp]
  0005f	e8 00 00 00 00	 call	 ?OnOK@CDialog@@MAEXXZ	; CDialog::OnOK

; 58   : }

  00064	83 c4 08	 add	 esp, 8
  00067	3b ec		 cmp	 ebp, esp
  00069	e8 00 00 00 00	 call	 __RTC_CheckEsp
  0006e	8b e5		 mov	 esp, ebp
  00070	5d		 pop	 ebp
  00071	c3		 ret	 0
?OnOK@OptionsDialog@@MAEXXZ ENDP			; OptionsDialog::OnOK
_TEXT	ENDS
; Function compile flags: /Odtp /RTCsu
; File C:\Users\15485\Desktop\工程之星点格棋\工程之星点格棋\OptionsDialog.cpp
_TEXT	SEGMENT
_this$ = -4						; size = 4
_pDX$ = 8						; size = 4
?DoDataExchange@OptionsDialog@@MAEXPAVCDataExchange@@@Z PROC ; OptionsDialog::DoDataExchange
; _this$ = ecx

; 33   : {

  00000	55		 push	 ebp
  00001	8b ec		 mov	 ebp, esp
  00003	51		 push	 ecx
  00004	c7 45 fc cc cc
	cc cc		 mov	 DWORD PTR [ebp-4], -858993460 ; ccccccccH
  0000b	89 4d fc	 mov	 DWORD PTR _this$[ebp], ecx

; 34   : 	CDialog::DoDataExchange(pDX);

  0000e	8b 45 08	 mov	 eax, DWORD PTR _pDX$[ebp]
  00011	50		 push	 eax
  00012	8b 4d fc	 mov	 ecx, DWORD PTR _this$[ebp]
  00015	e8 00 00 00 00	 call	 ?DoDataExchange@CWnd@@MAEXPAVCDataExchange@@@Z ; CWnd::DoDataExchange

; 35   : 	//{{AFX_DATA_MAP(OptionsDialog)
; 36   : 	DDX_Text(pDX, IDC_TimeLimit, m_timeLimit);

  0001a	8b 4d fc	 mov	 ecx, DWORD PTR _this$[ebp]
  0001d	81 c1 a8 00 00
	00		 add	 ecx, 168		; 000000a8H
  00023	51		 push	 ecx
  00024	68 f6 03 00 00	 push	 1014			; 000003f6H
  00029	8b 55 08	 mov	 edx, DWORD PTR _pDX$[ebp]
  0002c	52		 push	 edx
  0002d	e8 00 00 00 00	 call	 ?DDX_Text@@YGXPAVCDataExchange@@HAAI@Z ; DDX_Text

; 37   : 	DDV_MinMaxUInt(pDX, m_timeLimit, 1, 999999);

  00032	68 3f 42 0f 00	 push	 999999			; 000f423fH
  00037	6a 01		 push	 1
  00039	8b 45 fc	 mov	 eax, DWORD PTR _this$[ebp]
  0003c	8b 88 a8 00 00
	00		 mov	 ecx, DWORD PTR [eax+168]
  00042	51		 push	 ecx
  00043	8b 55 08	 mov	 edx, DWORD PTR _pDX$[ebp]
  00046	52		 push	 edx
  00047	e8 00 00 00 00	 call	 ?DDV_MinMaxUInt@@YGXPAVCDataExchange@@III@Z ; DDV_MinMaxUInt

; 38   : 	DDX_Check(pDX, IDC_AutoPlay, m_autoPlay);

  0004c	8b 45 fc	 mov	 eax, DWORD PTR _this$[ebp]
  0004f	05 ac 00 00 00	 add	 eax, 172		; 000000acH
  00054	50		 push	 eax
  00055	68 03 04 00 00	 push	 1027			; 00000403H
  0005a	8b 4d 08	 mov	 ecx, DWORD PTR _pDX$[ebp]
  0005d	51		 push	 ecx
  0005e	e8 00 00 00 00	 call	 ?DDX_Check@@YGXPAVCDataExchange@@HAAH@Z ; DDX_Check

; 39   : 	//}}AFX_DATA_MAP
; 40   : }

  00063	83 c4 04	 add	 esp, 4
  00066	3b ec		 cmp	 ebp, esp
  00068	e8 00 00 00 00	 call	 __RTC_CheckEsp
  0006d	8b e5		 mov	 esp, ebp
  0006f	5d		 pop	 ebp
  00070	c2 04 00	 ret	 4
?DoDataExchange@OptionsDialog@@MAEXPAVCDataExchange@@@Z ENDP ; OptionsDialog::DoDataExchange
_TEXT	ENDS
; Function compile flags: /Odtp /RTCsu
; File C:\Users\15485\Desktop\工程之星点格棋\工程之星点格棋\OptionsDialog.cpp
_TEXT	SEGMENT
_this$ = -16						; size = 4
__$EHRec$ = -12						; size = 12
_pParent$ = 8						; size = 4
??0OptionsDialog@@QAE@PAVCWnd@@@Z PROC			; OptionsDialog::OptionsDialog
; _this$ = ecx

; 24   : {

  00000	55		 push	 ebp
  00001	8b ec		 mov	 ebp, esp
  00003	6a ff		 push	 -1
  00005	68 00 00 00 00	 push	 __ehhandler$??0OptionsDialog@@QAE@PAVCWnd@@@Z
  0000a	64 a1 00 00 00
	00		 mov	 eax, DWORD PTR fs:0
  00010	50		 push	 eax
  00011	51		 push	 ecx
  00012	c7 45 f0 cc cc
	cc cc		 mov	 DWORD PTR [ebp-16], -858993460 ; ccccccccH
  00019	a1 00 00 00 00	 mov	 eax, DWORD PTR ___security_cookie
  0001e	33 c5		 xor	 eax, ebp
  00020	50		 push	 eax
  00021	8d 45 f4	 lea	 eax, DWORD PTR __$EHRec$[ebp]
  00024	64 a3 00 00 00
	00		 mov	 DWORD PTR fs:0, eax
  0002a	89 4d f0	 mov	 DWORD PTR _this$[ebp], ecx

; 23   : 	: CDialog(OptionsDialog::IDD, pParent)

  0002d	8b 45 08	 mov	 eax, DWORD PTR _pParent$[ebp]
  00030	50		 push	 eax
  00031	68 86 00 00 00	 push	 134			; 00000086H
  00036	8b 4d f0	 mov	 ecx, DWORD PTR _this$[ebp]
  00039	e8 00 00 00 00	 call	 ??0CDialog@@QAE@IPAVCWnd@@@Z ; CDialog::CDialog
  0003e	c7 45 fc 00 00
	00 00		 mov	 DWORD PTR __$EHRec$[ebp+8], 0

; 24   : {

  00045	8b 4d f0	 mov	 ecx, DWORD PTR _this$[ebp]
  00048	c7 01 00 00 00
	00		 mov	 DWORD PTR [ecx], OFFSET ??_7OptionsDialog@@6B@

; 25   : 	//{{AFX_DATA_INIT(OptionsDialog)
; 26   : 	m_timeLimit = pDoc->TimeLimit();

  0004e	8b 0d 00 00 00
	00		 mov	 ecx, DWORD PTR ?pDoc@@3PAVCNewBoxesDoc@@A ; pDoc
  00054	e8 00 00 00 00	 call	 ?TimeLimit@CNewBoxesDoc@@QAEHXZ ; CNewBoxesDoc::TimeLimit
  00059	8b 55 f0	 mov	 edx, DWORD PTR _this$[ebp]
  0005c	89 82 a8 00 00
	00		 mov	 DWORD PTR [edx+168], eax

; 27   :   m_autoPlay  = pDoc->AutoPlay();

  00062	8b 0d 00 00 00
	00		 mov	 ecx, DWORD PTR ?pDoc@@3PAVCNewBoxesDoc@@A ; pDoc
  00068	e8 00 00 00 00	 call	 ?AutoPlay@CNewBoxesDoc@@QAE_NXZ ; CNewBoxesDoc::AutoPlay
  0006d	0f b6 c0	 movzx	 eax, al
  00070	8b 4d f0	 mov	 ecx, DWORD PTR _this$[ebp]
  00073	89 81 ac 00 00
	00		 mov	 DWORD PTR [ecx+172], eax

; 28   : 	//}}AFX_DATA_INIT
; 29   : }

  00079	c7 45 fc ff ff
	ff ff		 mov	 DWORD PTR __$EHRec$[ebp+8], -1
  00080	8b 45 f0	 mov	 eax, DWORD PTR _this$[ebp]
  00083	8b 4d f4	 mov	 ecx, DWORD PTR __$EHRec$[ebp]
  00086	64 89 0d 00 00
	00 00		 mov	 DWORD PTR fs:0, ecx
  0008d	59		 pop	 ecx
  0008e	83 c4 10	 add	 esp, 16			; 00000010H
  00091	3b ec		 cmp	 ebp, esp
  00093	e8 00 00 00 00	 call	 __RTC_CheckEsp
  00098	8b e5		 mov	 esp, ebp
  0009a	5d		 pop	 ebp
  0009b	c2 04 00	 ret	 4
_TEXT	ENDS
text$x	SEGMENT
__unwindfunclet$??0OptionsDialog@@QAE@PAVCWnd@@@Z$0:
  00000	8b 4d f0	 mov	 ecx, DWORD PTR _this$[ebp]
  00003	e9 00 00 00 00	 jmp	 ??1CDialog@@UAE@XZ	; CDialog::~CDialog
  00008	cc		 int	 3
  00009	cc		 int	 3
  0000a	cc		 int	 3
  0000b	cc		 int	 3
  0000c	cc		 int	 3
__ehhandler$??0OptionsDialog@@QAE@PAVCWnd@@@Z:
  0000d	90		 npad	 1
  0000e	90		 npad	 1
  0000f	8b 54 24 08	 mov	 edx, DWORD PTR [esp+8]
  00013	8d 42 0c	 lea	 eax, DWORD PTR [edx+12]
  00016	8b 4a f8	 mov	 ecx, DWORD PTR [edx-8]
  00019	33 c8		 xor	 ecx, eax
  0001b	e8 00 00 00 00	 call	 @__security_check_cookie@4
  00020	b8 00 00 00 00	 mov	 eax, OFFSET __ehfuncinfo$??0OptionsDialog@@QAE@PAVCWnd@@@Z
  00025	e9 00 00 00 00	 jmp	 ___CxxFrameHandler3
text$x	ENDS
??0OptionsDialog@@QAE@PAVCWnd@@@Z ENDP			; OptionsDialog::OptionsDialog
; Function compile flags: /Odtp /RTCsu
; File C:\Users\15485\Desktop\工程之星点格棋\工程之星点格棋\OptionsDialog.cpp
;	COMDAT ?__empty_global_delete@@YAXPAXI@Z
_TEXT	SEGMENT
___formal$ = 8						; size = 4
___formal$ = 12						; size = 4
?__empty_global_delete@@YAXPAXI@Z PROC			; __empty_global_delete, COMDAT

  00000	55		 push	 ebp
  00001	8b ec		 mov	 ebp, esp
  00003	5d		 pop	 ebp
  00004	c3		 ret	 0
?__empty_global_delete@@YAXPAXI@Z ENDP			; __empty_global_delete
_TEXT	ENDS
; Function compile flags: /Odtp /RTCsu
; File C:\Users\15485\Desktop\工程之星点格棋\工程之星点格棋\OptionsDialog.cpp
;	COMDAT ?__empty_global_delete@@YAXPAX@Z
_TEXT	SEGMENT
___formal$ = 8						; size = 4
?__empty_global_delete@@YAXPAX@Z PROC			; __empty_global_delete, COMDAT

  00000	55		 push	 ebp
  00001	8b ec		 mov	 ebp, esp
  00003	5d		 pop	 ebp
  00004	c3		 ret	 0
?__empty_global_delete@@YAXPAX@Z ENDP			; __empty_global_delete
_TEXT	ENDS
END
