; Listing generated by Microsoft (R) Optimizing Compiler Version 19.35.32217.1 

	TITLE	C:\Users\15485\Desktop\工程之星点格棋\工程之星点格棋\Debug\StatisticsDialog.obj
	.686P
	.XMM
	include listing.inc
	.model	flat

INCLUDELIB MSVCRTD
INCLUDELIB OLDNAMES

PUBLIC	?__empty_global_delete@@YAXPAX@Z		; __empty_global_delete
PUBLIC	?__empty_global_delete@@YAXPAXI@Z		; __empty_global_delete
PUBLIC	??0StatisticsDialog@@QAE@PAVCWnd@@@Z		; StatisticsDialog::StatisticsDialog
PUBLIC	?DoDataExchange@StatisticsDialog@@MAEXPAVCDataExchange@@@Z ; StatisticsDialog::DoDataExchange
PUBLIC	?GetThisMessageMap@StatisticsDialog@@KGPBUAFX_MSGMAP@@XZ ; StatisticsDialog::GetThisMessageMap
PUBLIC	?GetMessageMap@StatisticsDialog@@MBEPBUAFX_MSGMAP@@XZ ; StatisticsDialog::GetMessageMap
PUBLIC	??1StatisticsDialog@@UAE@XZ			; StatisticsDialog::~StatisticsDialog
PUBLIC	??_GStatisticsDialog@@UAEPAXI@Z			; StatisticsDialog::`scalar deleting destructor'
PUBLIC	??_R1A@?0A@EA@CObject@@8			; CObject::`RTTI Base Class Descriptor at (0,-1,0,64)'
PUBLIC	??_R0?AVCObject@@@8				; CObject `RTTI Type Descriptor'
PUBLIC	??_R3CObject@@8					; CObject::`RTTI Class Hierarchy Descriptor'
PUBLIC	??_R2CObject@@8					; CObject::`RTTI Base Class Array'
PUBLIC	??_R1A@?0A@EA@CDialog@@8			; CDialog::`RTTI Base Class Descriptor at (0,-1,0,64)'
PUBLIC	??_R0?AVCDialog@@@8				; CDialog `RTTI Type Descriptor'
PUBLIC	??_R3CDialog@@8					; CDialog::`RTTI Class Hierarchy Descriptor'
PUBLIC	??_R2CDialog@@8					; CDialog::`RTTI Base Class Array'
PUBLIC	??_R1A@?0A@EA@CWnd@@8				; CWnd::`RTTI Base Class Descriptor at (0,-1,0,64)'
PUBLIC	??_R0?AVCWnd@@@8				; CWnd `RTTI Type Descriptor'
PUBLIC	??_R3CWnd@@8					; CWnd::`RTTI Class Hierarchy Descriptor'
PUBLIC	??_R2CWnd@@8					; CWnd::`RTTI Base Class Array'
PUBLIC	??_R1A@?0A@EA@CCmdTarget@@8			; CCmdTarget::`RTTI Base Class Descriptor at (0,-1,0,64)'
PUBLIC	??_R0?AVCCmdTarget@@@8				; CCmdTarget `RTTI Type Descriptor'
PUBLIC	??_R3CCmdTarget@@8				; CCmdTarget::`RTTI Class Hierarchy Descriptor'
PUBLIC	??_R2CCmdTarget@@8				; CCmdTarget::`RTTI Base Class Array'
PUBLIC	??_7StatisticsDialog@@6B@			; StatisticsDialog::`vftable'
PUBLIC	??_R4StatisticsDialog@@6B@			; StatisticsDialog::`RTTI Complete Object Locator'
PUBLIC	??_R0?AVStatisticsDialog@@@8			; StatisticsDialog `RTTI Type Descriptor'
PUBLIC	??_R3StatisticsDialog@@8			; StatisticsDialog::`RTTI Class Hierarchy Descriptor'
PUBLIC	??_R2StatisticsDialog@@8			; StatisticsDialog::`RTTI Base Class Array'
PUBLIC	??_R1A@?0A@EA@StatisticsDialog@@8		; StatisticsDialog::`RTTI Base Class Descriptor at (0,-1,0,64)'
EXTRN	?__global_delete@@YAXPAXI@Z:PROC		; __global_delete
EXTRN	??3CObject@@SGXPAX@Z:PROC			; CObject::operator delete
EXTRN	?Serialize@CObject@@UAEXAAVCArchive@@@Z:PROC	; CObject::Serialize
EXTRN	?DDX_Text@@YGXPAVCDataExchange@@HAAH@Z:PROC	; DDX_Text
EXTRN	?DDX_Text@@YGXPAVCDataExchange@@HAAI@Z:PROC	; DDX_Text
EXTRN	?IsInvokeAllowed@CCmdTarget@@UAEHJ@Z:PROC	; CCmdTarget::IsInvokeAllowed
EXTRN	?GetDispatchIID@CCmdTarget@@UAEHPAU_GUID@@@Z:PROC ; CCmdTarget::GetDispatchIID
EXTRN	?GetTypeInfoCount@CCmdTarget@@UAEIXZ:PROC	; CCmdTarget::GetTypeInfoCount
EXTRN	?GetTypeLibCache@CCmdTarget@@UAEPAVCTypeLibCache@@XZ:PROC ; CCmdTarget::GetTypeLibCache
EXTRN	?GetTypeLib@CCmdTarget@@UAEJKPAPAUITypeLib@@@Z:PROC ; CCmdTarget::GetTypeLib
EXTRN	?GetCommandMap@CCmdTarget@@MBEPBUAFX_OLECMDMAP@@XZ:PROC ; CCmdTarget::GetCommandMap
EXTRN	?GetDispatchMap@CCmdTarget@@MBEPBUAFX_DISPMAP@@XZ:PROC ; CCmdTarget::GetDispatchMap
EXTRN	?GetConnectionMap@CCmdTarget@@MBEPBUAFX_CONNECTIONMAP@@XZ:PROC ; CCmdTarget::GetConnectionMap
EXTRN	?GetEventSinkMap@CCmdTarget@@MBEPBUAFX_EVENTSINKMAP@@XZ:PROC ; CCmdTarget::GetEventSinkMap
EXTRN	?OnCreateAggregates@CCmdTarget@@UAEHXZ:PROC	; CCmdTarget::OnCreateAggregates
EXTRN	?GetInterfaceHook@CCmdTarget@@UAEPAUIUnknown@@PBX@Z:PROC ; CCmdTarget::GetInterfaceHook
EXTRN	?GetExtraConnectionPoints@CCmdTarget@@MAEHPAVCPtrArray@@@Z:PROC ; CCmdTarget::GetExtraConnectionPoints
EXTRN	?GetConnectionHook@CCmdTarget@@MAEPAUIConnectionPoint@@ABU_GUID@@@Z:PROC ; CCmdTarget::GetConnectionHook
EXTRN	?PreSubclassWindow@CWnd@@UAEXXZ:PROC		; CWnd::PreSubclassWindow
EXTRN	?Create@CWnd@@UAEHPBD0KABUtagRECT@@PAV1@IPAUCCreateContext@@@Z:PROC ; CWnd::Create
EXTRN	?CreateEx@CWnd@@UAEHKPBD0KHHHHPAUHWND__@@PAUHMENU__@@PAX@Z:PROC ; CWnd::CreateEx
EXTRN	?CreateEx@CWnd@@UAEHKPBD0KABUtagRECT@@PAV1@IPAX@Z:PROC ; CWnd::CreateEx
EXTRN	?DestroyWindow@CWnd@@UAEHXZ:PROC		; CWnd::DestroyWindow
EXTRN	?PreCreateWindow@CWnd@@UAEHAAUtagCREATESTRUCTA@@@Z:PROC ; CWnd::PreCreateWindow
EXTRN	?CalcWindowRect@CWnd@@UAEXPAUtagRECT@@I@Z:PROC	; CWnd::CalcWindowRect
EXTRN	?GetMenu@CWnd@@UBEPAVCMenu@@XZ:PROC		; CWnd::GetMenu
EXTRN	?SetMenu@CWnd@@UAEHPAVCMenu@@@Z:PROC		; CWnd::SetMenu
EXTRN	?OnToolHitTest@CWnd@@UBEHVCPoint@@PAUtagTOOLINFOA@@@Z:PROC ; CWnd::OnToolHitTest
EXTRN	?GetScrollBarCtrl@CWnd@@UBEPAVCScrollBar@@H@Z:PROC ; CWnd::GetScrollBarCtrl
EXTRN	?WinHelpA@CWnd@@UAEXKI@Z:PROC			; CWnd::WinHelpA
EXTRN	?HtmlHelpA@CWnd@@UAEXKI@Z:PROC			; CWnd::HtmlHelpA
EXTRN	?WinHelpInternal@CWnd@@UAEXKI@Z:PROC		; CWnd::WinHelpInternal
EXTRN	?ContinueModal@CWnd@@UAEHXZ:PROC		; CWnd::ContinueModal
EXTRN	?EndModalLoop@CWnd@@UAEXH@Z:PROC		; CWnd::EndModalLoop
EXTRN	?OnDrawIconicThumbnailOrLivePreview@CWnd@@UAEXAAVCDC@@VCRect@@VCSize@@HAAH@Z:PROC ; CWnd::OnDrawIconicThumbnailOrLivePreview
EXTRN	?GetInterfaceMap@CWnd@@MBEPBUAFX_INTERFACEMAP@@XZ:PROC ; CWnd::GetInterfaceMap
EXTRN	?EnsureStdObj@CWnd@@UAEJXZ:PROC			; CWnd::EnsureStdObj
EXTRN	?get_accParent@CWnd@@UAEJPAPAUIDispatch@@@Z:PROC ; CWnd::get_accParent
EXTRN	?get_accChildCount@CWnd@@UAEJPAJ@Z:PROC		; CWnd::get_accChildCount
EXTRN	?get_accChild@CWnd@@UAEJUtagVARIANT@@PAPAUIDispatch@@@Z:PROC ; CWnd::get_accChild
EXTRN	?get_accName@CWnd@@UAEJUtagVARIANT@@PAPA_W@Z:PROC ; CWnd::get_accName
EXTRN	?get_accValue@CWnd@@UAEJUtagVARIANT@@PAPA_W@Z:PROC ; CWnd::get_accValue
EXTRN	?get_accDescription@CWnd@@UAEJUtagVARIANT@@PAPA_W@Z:PROC ; CWnd::get_accDescription
EXTRN	?get_accRole@CWnd@@UAEJUtagVARIANT@@PAU2@@Z:PROC ; CWnd::get_accRole
EXTRN	?get_accState@CWnd@@UAEJUtagVARIANT@@PAU2@@Z:PROC ; CWnd::get_accState
EXTRN	?get_accHelp@CWnd@@UAEJUtagVARIANT@@PAPA_W@Z:PROC ; CWnd::get_accHelp
EXTRN	?get_accHelpTopic@CWnd@@UAEJPAPA_WUtagVARIANT@@PAJ@Z:PROC ; CWnd::get_accHelpTopic
EXTRN	?get_accKeyboardShortcut@CWnd@@UAEJUtagVARIANT@@PAPA_W@Z:PROC ; CWnd::get_accKeyboardShortcut
EXTRN	?get_accFocus@CWnd@@UAEJPAUtagVARIANT@@@Z:PROC	; CWnd::get_accFocus
EXTRN	?get_accSelection@CWnd@@UAEJPAUtagVARIANT@@@Z:PROC ; CWnd::get_accSelection
EXTRN	?get_accDefaultAction@CWnd@@UAEJUtagVARIANT@@PAPA_W@Z:PROC ; CWnd::get_accDefaultAction
EXTRN	?accSelect@CWnd@@UAEJJUtagVARIANT@@@Z:PROC	; CWnd::accSelect
EXTRN	?accLocation@CWnd@@UAEJPAJ000UtagVARIANT@@@Z:PROC ; CWnd::accLocation
EXTRN	?accNavigate@CWnd@@UAEJJUtagVARIANT@@PAU2@@Z:PROC ; CWnd::accNavigate
EXTRN	?accHitTest@CWnd@@UAEJJJPAUtagVARIANT@@@Z:PROC	; CWnd::accHitTest
EXTRN	?accDoDefaultAction@CWnd@@UAEJUtagVARIANT@@@Z:PROC ; CWnd::accDoDefaultAction
EXTRN	?put_accName@CWnd@@UAEJUtagVARIANT@@PA_W@Z:PROC	; CWnd::put_accName
EXTRN	?put_accValue@CWnd@@UAEJUtagVARIANT@@PA_W@Z:PROC ; CWnd::put_accValue
EXTRN	?SetProxy@CWnd@@UAEJPAUIAccessibleProxy@@@Z:PROC ; CWnd::SetProxy
EXTRN	?CreateAccessibleProxy@CWnd@@UAEJIJPAJ@Z:PROC	; CWnd::CreateAccessibleProxy
EXTRN	?OnCommand@CWnd@@MAEHIJ@Z:PROC			; CWnd::OnCommand
EXTRN	?OnNotify@CWnd@@MAEHIJPAJ@Z:PROC		; CWnd::OnNotify
EXTRN	?GetSuperWndProcAddr@CWnd@@MAEPAP6GJPAUHWND__@@IIJ@ZXZ:PROC ; CWnd::GetSuperWndProcAddr
EXTRN	?DoDataExchange@CWnd@@MAEXPAVCDataExchange@@@Z:PROC ; CWnd::DoDataExchange
EXTRN	?BeginModalState@CWnd@@UAEXXZ:PROC		; CWnd::BeginModalState
EXTRN	?EndModalState@CWnd@@UAEXXZ:PROC		; CWnd::EndModalState
EXTRN	?OnAmbientProperty@CWnd@@UAEHPAVCOleControlSite@@JPAUtagVARIANT@@@Z:PROC ; CWnd::OnAmbientProperty
EXTRN	?WindowProc@CWnd@@MAEJIIJ@Z:PROC		; CWnd::WindowProc
EXTRN	?OnWndMsg@CWnd@@MAEHIIJPAJ@Z:PROC		; CWnd::OnWndMsg
EXTRN	?DefWindowProcA@CWnd@@MAEJIIJ@Z:PROC		; CWnd::DefWindowProcA
EXTRN	?PostNcDestroy@CWnd@@MAEXXZ:PROC		; CWnd::PostNcDestroy
EXTRN	?OnChildNotify@CWnd@@MAEHIIJPAJ@Z:PROC		; CWnd::OnChildNotify
EXTRN	?OnTouchInputs@CWnd@@MAEHIPAUtagTOUCHINPUT@@@Z:PROC ; CWnd::OnTouchInputs
EXTRN	?OnTouchInput@CWnd@@MAEHVCPoint@@HHPAUtagTOUCHINPUT@@@Z:PROC ; CWnd::OnTouchInput
EXTRN	?GetGestureStatus@CWnd@@MAEKVCPoint@@@Z:PROC	; CWnd::GetGestureStatus
EXTRN	?OnGestureZoom@CWnd@@MAEHVCPoint@@J@Z:PROC	; CWnd::OnGestureZoom
EXTRN	?OnGesturePan@CWnd@@MAEHVCPoint@@0@Z:PROC	; CWnd::OnGesturePan
EXTRN	?OnGestureRotate@CWnd@@MAEHVCPoint@@N@Z:PROC	; CWnd::OnGestureRotate
EXTRN	?OnGestureTwoFingerTap@CWnd@@MAEHVCPoint@@@Z:PROC ; CWnd::OnGestureTwoFingerTap
EXTRN	?OnGesturePressAndTap@CWnd@@MAEHVCPoint@@J@Z:PROC ; CWnd::OnGesturePressAndTap
EXTRN	?ResizeDynamicLayout@CWnd@@MAEXXZ:PROC		; CWnd::ResizeDynamicLayout
EXTRN	?IsFrameWnd@CWnd@@UBEHXZ:PROC			; CWnd::IsFrameWnd
EXTRN	?OnFinalRelease@CWnd@@UAEXXZ:PROC		; CWnd::OnFinalRelease
EXTRN	?CreateControlContainer@CWnd@@MAEHPAPAVCOleControlContainer@@@Z:PROC ; CWnd::CreateControlContainer
EXTRN	?CreateControlSite@CWnd@@MAEHPAVCOleControlContainer@@PAPAVCOleControlSite@@IABU_GUID@@@Z:PROC ; CWnd::CreateControlSite
EXTRN	?GetRuntimeClass@CDialog@@UBEPAUCRuntimeClass@@XZ:PROC ; CDialog::GetRuntimeClass
EXTRN	?Create@CDialog@@UAEHPBDPAVCWnd@@@Z:PROC	; CDialog::Create
EXTRN	?Create@CDialog@@UAEHIPAVCWnd@@@Z:PROC		; CDialog::Create
EXTRN	?CreateIndirect@CDialog@@UAEHPBUDLGTEMPLATE@@PAVCWnd@@PAX@Z:PROC ; CDialog::CreateIndirect
EXTRN	?CreateIndirect@CDialog@@UAEHPAXPAVCWnd@@@Z:PROC ; CDialog::CreateIndirect
EXTRN	??0CDialog@@QAE@IPAVCWnd@@@Z:PROC		; CDialog::CDialog
EXTRN	?DoModal@CDialog@@UAEHXZ:PROC			; CDialog::DoModal
EXTRN	?OnInitDialog@CDialog@@UAEHXZ:PROC		; CDialog::OnInitDialog
EXTRN	?OnSetFont@CDialog@@UAEXPAVCFont@@@Z:PROC	; CDialog::OnSetFont
EXTRN	?OnOK@CDialog@@MAEXXZ:PROC			; CDialog::OnOK
EXTRN	?OnCancel@CDialog@@MAEXXZ:PROC			; CDialog::OnCancel
EXTRN	??1CDialog@@UAE@XZ:PROC				; CDialog::~CDialog
EXTRN	?AssertValid@CDialog@@UBEXXZ:PROC		; CDialog::AssertValid
EXTRN	?Dump@CDialog@@UBEXAAVCDumpContext@@@Z:PROC	; CDialog::Dump
EXTRN	?PreTranslateMessage@CDialog@@UAEHPAUtagMSG@@@Z:PROC ; CDialog::PreTranslateMessage
EXTRN	?OnCmdMsg@CDialog@@UAEHIHPAXPAUAFX_CMDHANDLERINFO@@@Z:PROC ; CDialog::OnCmdMsg
EXTRN	?CheckAutoCenter@CDialog@@UAEHXZ:PROC		; CDialog::CheckAutoCenter
EXTRN	?SetOccDialogInfo@CDialog@@MAEHPAU_AFX_OCC_DIALOG_INFO@@@Z:PROC ; CDialog::SetOccDialogInfo
EXTRN	?GetOccDialogInfo@CDialog@@MAEPAU_AFX_OCC_DIALOG_INFO@@XZ:PROC ; CDialog::GetOccDialogInfo
EXTRN	?PreInitDialog@CDialog@@MAEXXZ:PROC		; CDialog::PreInitDialog
EXTRN	?GetThisMessageMap@CDialog@@KGPBUAFX_MSGMAP@@XZ:PROC ; CDialog::GetThisMessageMap
EXTRN	??_EStatisticsDialog@@UAEPAXI@Z:PROC		; StatisticsDialog::`vector deleting destructor'
EXTRN	__RTC_CheckEsp:PROC
EXTRN	__RTC_InitBase:PROC
EXTRN	__RTC_Shutdown:PROC
EXTRN	??_7type_info@@6B@:QWORD			; type_info::`vftable'
EXTRN	?totalNimHashEntries@@3HA:DWORD			; totalNimHashEntries
EXTRN	?nimExistsCalls@@3HA:DWORD			; nimExistsCalls
EXTRN	?nimExistsTrue@@3HA:DWORD			; nimExistsTrue
EXTRN	?nimHashCacheCrash@@3HA:DWORD			; nimHashCacheCrash
EXTRN	?pointsCacheUpdate@@3HA:DWORD			; pointsCacheUpdate
EXTRN	?pointsExistsCalls@@3HA:DWORD			; pointsExistsCalls
EXTRN	?pointsExistsTrue@@3HA:DWORD			; pointsExistsTrue
EXTRN	?pointsHashCacheCrash@@3HA:DWORD		; pointsHashCacheCrash
EXTRN	?totalPointsCacheEntries@@3HA:DWORD		; totalPointsCacheEntries
EXTRN	?cdExistsCalls@@3HA:DWORD			; cdExistsCalls
EXTRN	?cdExistsTrue@@3HA:DWORD			; cdExistsTrue
EXTRN	?totalcdCacheEntries@@3HA:DWORD			; totalcdCacheEntries
EXTRN	?cdHashCacheCrash@@3HA:DWORD			; cdHashCacheCrash
EXTRN	?cdCacheUpdate@@3HA:DWORD			; cdCacheUpdate
;	COMDAT rtc$TMZ
rtc$TMZ	SEGMENT
__RTC_Shutdown.rtc$TMZ DD FLAT:__RTC_Shutdown
rtc$TMZ	ENDS
;	COMDAT rtc$IMZ
rtc$IMZ	SEGMENT
__RTC_InitBase.rtc$IMZ DD FLAT:__RTC_InitBase
rtc$IMZ	ENDS
;	COMDAT ??_R1A@?0A@EA@StatisticsDialog@@8
rdata$r	SEGMENT
??_R1A@?0A@EA@StatisticsDialog@@8 DD FLAT:??_R0?AVStatisticsDialog@@@8 ; StatisticsDialog::`RTTI Base Class Descriptor at (0,-1,0,64)'
	DD	04H
	DD	00H
	DD	0ffffffffH
	DD	00H
	DD	040H
	DD	FLAT:??_R3StatisticsDialog@@8
rdata$r	ENDS
;	COMDAT ??_R2StatisticsDialog@@8
rdata$r	SEGMENT
??_R2StatisticsDialog@@8 DD FLAT:??_R1A@?0A@EA@StatisticsDialog@@8 ; StatisticsDialog::`RTTI Base Class Array'
	DD	FLAT:??_R1A@?0A@EA@CDialog@@8
	DD	FLAT:??_R1A@?0A@EA@CWnd@@8
	DD	FLAT:??_R1A@?0A@EA@CCmdTarget@@8
	DD	FLAT:??_R1A@?0A@EA@CObject@@8
rdata$r	ENDS
;	COMDAT ??_R3StatisticsDialog@@8
rdata$r	SEGMENT
??_R3StatisticsDialog@@8 DD 00H				; StatisticsDialog::`RTTI Class Hierarchy Descriptor'
	DD	00H
	DD	05H
	DD	FLAT:??_R2StatisticsDialog@@8
rdata$r	ENDS
;	COMDAT ??_R0?AVStatisticsDialog@@@8
data$rs	SEGMENT
??_R0?AVStatisticsDialog@@@8 DD FLAT:??_7type_info@@6B@	; StatisticsDialog `RTTI Type Descriptor'
	DD	00H
	DB	'.?AVStatisticsDialog@@', 00H
data$rs	ENDS
;	COMDAT ??_R4StatisticsDialog@@6B@
rdata$r	SEGMENT
??_R4StatisticsDialog@@6B@ DD 00H			; StatisticsDialog::`RTTI Complete Object Locator'
	DD	00H
	DD	00H
	DD	FLAT:??_R0?AVStatisticsDialog@@@8
	DD	FLAT:??_R3StatisticsDialog@@8
rdata$r	ENDS
;	COMDAT ?messageMap@?1??GetThisMessageMap@StatisticsDialog@@KGPBUAFX_MSGMAP@@XZ@4U3@B
CONST	SEGMENT
?messageMap@?1??GetThisMessageMap@StatisticsDialog@@KGPBUAFX_MSGMAP@@XZ@4U3@B DD FLAT:?GetThisMessageMap@CDialog@@KGPBUAFX_MSGMAP@@XZ ; `StatisticsDialog::GetThisMessageMap'::`2'::messageMap
	DD	FLAT:?_messageEntries@?1??GetThisMessageMap@StatisticsDialog@@KGPBUAFX_MSGMAP@@XZ@4QBUAFX_MSGMAP_ENTRY@@B
CONST	ENDS
;	COMDAT ?_messageEntries@?1??GetThisMessageMap@StatisticsDialog@@KGPBUAFX_MSGMAP@@XZ@4QBUAFX_MSGMAP_ENTRY@@B
CONST	SEGMENT
?_messageEntries@?1??GetThisMessageMap@StatisticsDialog@@KGPBUAFX_MSGMAP@@XZ@4QBUAFX_MSGMAP_ENTRY@@B DD 00H ; `StatisticsDialog::GetThisMessageMap'::`2'::_messageEntries
	DD	00H
	DD	00H
	DD	00H
	DD	00H
	DD	00H
CONST	ENDS
;	COMDAT ??_7StatisticsDialog@@6B@
CONST	SEGMENT
??_7StatisticsDialog@@6B@ DD FLAT:??_R4StatisticsDialog@@6B@ ; StatisticsDialog::`vftable'
	DD	FLAT:?GetRuntimeClass@CDialog@@UBEPAUCRuntimeClass@@XZ
	DD	FLAT:??_EStatisticsDialog@@UAEPAXI@Z
	DD	FLAT:?Serialize@CObject@@UAEXAAVCArchive@@@Z
	DD	FLAT:?AssertValid@CDialog@@UBEXXZ
	DD	FLAT:?Dump@CDialog@@UBEXAAVCDumpContext@@@Z
	DD	FLAT:?OnCmdMsg@CDialog@@UAEHIHPAXPAUAFX_CMDHANDLERINFO@@@Z
	DD	FLAT:?OnFinalRelease@CWnd@@UAEXXZ
	DD	FLAT:?IsInvokeAllowed@CCmdTarget@@UAEHJ@Z
	DD	FLAT:?GetDispatchIID@CCmdTarget@@UAEHPAU_GUID@@@Z
	DD	FLAT:?GetTypeInfoCount@CCmdTarget@@UAEIXZ
	DD	FLAT:?GetTypeLibCache@CCmdTarget@@UAEPAVCTypeLibCache@@XZ
	DD	FLAT:?GetTypeLib@CCmdTarget@@UAEJKPAPAUITypeLib@@@Z
	DD	FLAT:?GetMessageMap@StatisticsDialog@@MBEPBUAFX_MSGMAP@@XZ
	DD	FLAT:?GetCommandMap@CCmdTarget@@MBEPBUAFX_OLECMDMAP@@XZ
	DD	FLAT:?GetDispatchMap@CCmdTarget@@MBEPBUAFX_DISPMAP@@XZ
	DD	FLAT:?GetConnectionMap@CCmdTarget@@MBEPBUAFX_CONNECTIONMAP@@XZ
	DD	FLAT:?GetInterfaceMap@CWnd@@MBEPBUAFX_INTERFACEMAP@@XZ
	DD	FLAT:?GetEventSinkMap@CCmdTarget@@MBEPBUAFX_EVENTSINKMAP@@XZ
	DD	FLAT:?OnCreateAggregates@CCmdTarget@@UAEHXZ
	DD	FLAT:?GetInterfaceHook@CCmdTarget@@UAEPAUIUnknown@@PBX@Z
	DD	FLAT:?GetExtraConnectionPoints@CCmdTarget@@MAEHPAVCPtrArray@@@Z
	DD	FLAT:?GetConnectionHook@CCmdTarget@@MAEPAUIConnectionPoint@@ABU_GUID@@@Z
	DD	FLAT:?PreSubclassWindow@CWnd@@UAEXXZ
	DD	FLAT:?Create@CWnd@@UAEHPBD0KABUtagRECT@@PAV1@IPAUCCreateContext@@@Z
	DD	FLAT:?CreateEx@CWnd@@UAEHKPBD0KABUtagRECT@@PAV1@IPAX@Z
	DD	FLAT:?CreateEx@CWnd@@UAEHKPBD0KHHHHPAUHWND__@@PAUHMENU__@@PAX@Z
	DD	FLAT:?DestroyWindow@CWnd@@UAEHXZ
	DD	FLAT:?PreCreateWindow@CWnd@@UAEHAAUtagCREATESTRUCTA@@@Z
	DD	FLAT:?CalcWindowRect@CWnd@@UAEXPAUtagRECT@@I@Z
	DD	FLAT:?GetMenu@CWnd@@UBEPAVCMenu@@XZ
	DD	FLAT:?SetMenu@CWnd@@UAEHPAVCMenu@@@Z
	DD	FLAT:?OnToolHitTest@CWnd@@UBEHVCPoint@@PAUtagTOOLINFOA@@@Z
	DD	FLAT:?GetScrollBarCtrl@CWnd@@UBEPAVCScrollBar@@H@Z
	DD	FLAT:?WinHelpA@CWnd@@UAEXKI@Z
	DD	FLAT:?HtmlHelpA@CWnd@@UAEXKI@Z
	DD	FLAT:?WinHelpInternal@CWnd@@UAEXKI@Z
	DD	FLAT:?ContinueModal@CWnd@@UAEHXZ
	DD	FLAT:?EndModalLoop@CWnd@@UAEXH@Z
	DD	FLAT:?OnDrawIconicThumbnailOrLivePreview@CWnd@@UAEXAAVCDC@@VCRect@@VCSize@@HAAH@Z
	DD	FLAT:?EnsureStdObj@CWnd@@UAEJXZ
	DD	FLAT:?get_accParent@CWnd@@UAEJPAPAUIDispatch@@@Z
	DD	FLAT:?get_accChildCount@CWnd@@UAEJPAJ@Z
	DD	FLAT:?get_accChild@CWnd@@UAEJUtagVARIANT@@PAPAUIDispatch@@@Z
	DD	FLAT:?get_accName@CWnd@@UAEJUtagVARIANT@@PAPA_W@Z
	DD	FLAT:?get_accValue@CWnd@@UAEJUtagVARIANT@@PAPA_W@Z
	DD	FLAT:?get_accDescription@CWnd@@UAEJUtagVARIANT@@PAPA_W@Z
	DD	FLAT:?get_accRole@CWnd@@UAEJUtagVARIANT@@PAU2@@Z
	DD	FLAT:?get_accState@CWnd@@UAEJUtagVARIANT@@PAU2@@Z
	DD	FLAT:?get_accHelp@CWnd@@UAEJUtagVARIANT@@PAPA_W@Z
	DD	FLAT:?get_accHelpTopic@CWnd@@UAEJPAPA_WUtagVARIANT@@PAJ@Z
	DD	FLAT:?get_accKeyboardShortcut@CWnd@@UAEJUtagVARIANT@@PAPA_W@Z
	DD	FLAT:?get_accFocus@CWnd@@UAEJPAUtagVARIANT@@@Z
	DD	FLAT:?get_accSelection@CWnd@@UAEJPAUtagVARIANT@@@Z
	DD	FLAT:?get_accDefaultAction@CWnd@@UAEJUtagVARIANT@@PAPA_W@Z
	DD	FLAT:?accSelect@CWnd@@UAEJJUtagVARIANT@@@Z
	DD	FLAT:?accLocation@CWnd@@UAEJPAJ000UtagVARIANT@@@Z
	DD	FLAT:?accNavigate@CWnd@@UAEJJUtagVARIANT@@PAU2@@Z
	DD	FLAT:?accHitTest@CWnd@@UAEJJJPAUtagVARIANT@@@Z
	DD	FLAT:?accDoDefaultAction@CWnd@@UAEJUtagVARIANT@@@Z
	DD	FLAT:?put_accName@CWnd@@UAEJUtagVARIANT@@PA_W@Z
	DD	FLAT:?put_accValue@CWnd@@UAEJUtagVARIANT@@PA_W@Z
	DD	FLAT:?SetProxy@CWnd@@UAEJPAUIAccessibleProxy@@@Z
	DD	FLAT:?CreateAccessibleProxy@CWnd@@UAEJIJPAJ@Z
	DD	FLAT:?OnCommand@CWnd@@MAEHIJ@Z
	DD	FLAT:?OnNotify@CWnd@@MAEHIJPAJ@Z
	DD	FLAT:?GetSuperWndProcAddr@CWnd@@MAEPAP6GJPAUHWND__@@IIJ@ZXZ
	DD	FLAT:?DoDataExchange@StatisticsDialog@@MAEXPAVCDataExchange@@@Z
	DD	FLAT:?BeginModalState@CWnd@@UAEXXZ
	DD	FLAT:?EndModalState@CWnd@@UAEXXZ
	DD	FLAT:?PreTranslateMessage@CDialog@@UAEHPAUtagMSG@@@Z
	DD	FLAT:?OnAmbientProperty@CWnd@@UAEHPAVCOleControlSite@@JPAUtagVARIANT@@@Z
	DD	FLAT:?WindowProc@CWnd@@MAEJIIJ@Z
	DD	FLAT:?OnWndMsg@CWnd@@MAEHIIJPAJ@Z
	DD	FLAT:?DefWindowProcA@CWnd@@MAEJIIJ@Z
	DD	FLAT:?PostNcDestroy@CWnd@@MAEXXZ
	DD	FLAT:?OnChildNotify@CWnd@@MAEHIIJPAJ@Z
	DD	FLAT:?OnTouchInputs@CWnd@@MAEHIPAUtagTOUCHINPUT@@@Z
	DD	FLAT:?OnTouchInput@CWnd@@MAEHVCPoint@@HHPAUtagTOUCHINPUT@@@Z
	DD	FLAT:?GetGestureStatus@CWnd@@MAEKVCPoint@@@Z
	DD	FLAT:?OnGestureZoom@CWnd@@MAEHVCPoint@@J@Z
	DD	FLAT:?OnGesturePan@CWnd@@MAEHVCPoint@@0@Z
	DD	FLAT:?OnGestureRotate@CWnd@@MAEHVCPoint@@N@Z
	DD	FLAT:?OnGestureTwoFingerTap@CWnd@@MAEHVCPoint@@@Z
	DD	FLAT:?OnGesturePressAndTap@CWnd@@MAEHVCPoint@@J@Z
	DD	FLAT:?ResizeDynamicLayout@CWnd@@MAEXXZ
	DD	FLAT:?CheckAutoCenter@CDialog@@UAEHXZ
	DD	FLAT:?IsFrameWnd@CWnd@@UBEHXZ
	DD	FLAT:?CreateControlContainer@CWnd@@MAEHPAPAVCOleControlContainer@@@Z
	DD	FLAT:?CreateControlSite@CWnd@@MAEHPAVCOleControlContainer@@PAPAVCOleControlSite@@IABU_GUID@@@Z
	DD	FLAT:?SetOccDialogInfo@CDialog@@MAEHPAU_AFX_OCC_DIALOG_INFO@@@Z
	DD	FLAT:?GetOccDialogInfo@CDialog@@MAEPAU_AFX_OCC_DIALOG_INFO@@XZ
	DD	FLAT:?Create@CDialog@@UAEHIPAVCWnd@@@Z
	DD	FLAT:?Create@CDialog@@UAEHPBDPAVCWnd@@@Z
	DD	FLAT:?CreateIndirect@CDialog@@UAEHPAXPAVCWnd@@@Z
	DD	FLAT:?CreateIndirect@CDialog@@UAEHPBUDLGTEMPLATE@@PAVCWnd@@PAX@Z
	DD	FLAT:?DoModal@CDialog@@UAEHXZ
	DD	FLAT:?OnInitDialog@CDialog@@UAEHXZ
	DD	FLAT:?OnSetFont@CDialog@@UAEXPAVCFont@@@Z
	DD	FLAT:?OnOK@CDialog@@MAEXXZ
	DD	FLAT:?OnCancel@CDialog@@MAEXXZ
	DD	FLAT:?PreInitDialog@CDialog@@MAEXXZ
CONST	ENDS
;	COMDAT ??_R2CCmdTarget@@8
rdata$r	SEGMENT
??_R2CCmdTarget@@8 DD FLAT:??_R1A@?0A@EA@CCmdTarget@@8	; CCmdTarget::`RTTI Base Class Array'
	DD	FLAT:??_R1A@?0A@EA@CObject@@8
rdata$r	ENDS
;	COMDAT ??_R3CCmdTarget@@8
rdata$r	SEGMENT
??_R3CCmdTarget@@8 DD 00H				; CCmdTarget::`RTTI Class Hierarchy Descriptor'
	DD	00H
	DD	02H
	DD	FLAT:??_R2CCmdTarget@@8
rdata$r	ENDS
;	COMDAT ??_R0?AVCCmdTarget@@@8
data$rs	SEGMENT
??_R0?AVCCmdTarget@@@8 DD FLAT:??_7type_info@@6B@	; CCmdTarget `RTTI Type Descriptor'
	DD	00H
	DB	'.?AVCCmdTarget@@', 00H
data$rs	ENDS
;	COMDAT ??_R1A@?0A@EA@CCmdTarget@@8
rdata$r	SEGMENT
??_R1A@?0A@EA@CCmdTarget@@8 DD FLAT:??_R0?AVCCmdTarget@@@8 ; CCmdTarget::`RTTI Base Class Descriptor at (0,-1,0,64)'
	DD	01H
	DD	00H
	DD	0ffffffffH
	DD	00H
	DD	040H
	DD	FLAT:??_R3CCmdTarget@@8
rdata$r	ENDS
;	COMDAT ??_R2CWnd@@8
rdata$r	SEGMENT
??_R2CWnd@@8 DD	FLAT:??_R1A@?0A@EA@CWnd@@8		; CWnd::`RTTI Base Class Array'
	DD	FLAT:??_R1A@?0A@EA@CCmdTarget@@8
	DD	FLAT:??_R1A@?0A@EA@CObject@@8
rdata$r	ENDS
;	COMDAT ??_R3CWnd@@8
rdata$r	SEGMENT
??_R3CWnd@@8 DD	00H					; CWnd::`RTTI Class Hierarchy Descriptor'
	DD	00H
	DD	03H
	DD	FLAT:??_R2CWnd@@8
rdata$r	ENDS
;	COMDAT ??_R0?AVCWnd@@@8
data$rs	SEGMENT
??_R0?AVCWnd@@@8 DD FLAT:??_7type_info@@6B@		; CWnd `RTTI Type Descriptor'
	DD	00H
	DB	'.?AVCWnd@@', 00H
data$rs	ENDS
;	COMDAT ??_R1A@?0A@EA@CWnd@@8
rdata$r	SEGMENT
??_R1A@?0A@EA@CWnd@@8 DD FLAT:??_R0?AVCWnd@@@8		; CWnd::`RTTI Base Class Descriptor at (0,-1,0,64)'
	DD	02H
	DD	00H
	DD	0ffffffffH
	DD	00H
	DD	040H
	DD	FLAT:??_R3CWnd@@8
rdata$r	ENDS
;	COMDAT ??_R2CDialog@@8
rdata$r	SEGMENT
??_R2CDialog@@8 DD FLAT:??_R1A@?0A@EA@CDialog@@8	; CDialog::`RTTI Base Class Array'
	DD	FLAT:??_R1A@?0A@EA@CWnd@@8
	DD	FLAT:??_R1A@?0A@EA@CCmdTarget@@8
	DD	FLAT:??_R1A@?0A@EA@CObject@@8
rdata$r	ENDS
;	COMDAT ??_R3CDialog@@8
rdata$r	SEGMENT
??_R3CDialog@@8 DD 00H					; CDialog::`RTTI Class Hierarchy Descriptor'
	DD	00H
	DD	04H
	DD	FLAT:??_R2CDialog@@8
rdata$r	ENDS
;	COMDAT ??_R0?AVCDialog@@@8
data$rs	SEGMENT
??_R0?AVCDialog@@@8 DD FLAT:??_7type_info@@6B@		; CDialog `RTTI Type Descriptor'
	DD	00H
	DB	'.?AVCDialog@@', 00H
data$rs	ENDS
;	COMDAT ??_R1A@?0A@EA@CDialog@@8
rdata$r	SEGMENT
??_R1A@?0A@EA@CDialog@@8 DD FLAT:??_R0?AVCDialog@@@8	; CDialog::`RTTI Base Class Descriptor at (0,-1,0,64)'
	DD	03H
	DD	00H
	DD	0ffffffffH
	DD	00H
	DD	040H
	DD	FLAT:??_R3CDialog@@8
rdata$r	ENDS
;	COMDAT ??_R2CObject@@8
rdata$r	SEGMENT
??_R2CObject@@8 DD FLAT:??_R1A@?0A@EA@CObject@@8	; CObject::`RTTI Base Class Array'
rdata$r	ENDS
;	COMDAT ??_R3CObject@@8
rdata$r	SEGMENT
??_R3CObject@@8 DD 00H					; CObject::`RTTI Class Hierarchy Descriptor'
	DD	00H
	DD	01H
	DD	FLAT:??_R2CObject@@8
rdata$r	ENDS
;	COMDAT ??_R0?AVCObject@@@8
data$rs	SEGMENT
??_R0?AVCObject@@@8 DD FLAT:??_7type_info@@6B@		; CObject `RTTI Type Descriptor'
	DD	00H
	DB	'.?AVCObject@@', 00H
data$rs	ENDS
;	COMDAT ??_R1A@?0A@EA@CObject@@8
rdata$r	SEGMENT
??_R1A@?0A@EA@CObject@@8 DD FLAT:??_R0?AVCObject@@@8	; CObject::`RTTI Base Class Descriptor at (0,-1,0,64)'
	DD	00H
	DD	00H
	DD	0ffffffffH
	DD	00H
	DD	040H
	DD	FLAT:??_R3CObject@@8
rdata$r	ENDS
; Function compile flags: /Odtp /RTCsu
;	COMDAT ??_GStatisticsDialog@@UAEPAXI@Z
_TEXT	SEGMENT
_this$ = -4						; size = 4
___flags$ = 8						; size = 4
??_GStatisticsDialog@@UAEPAXI@Z PROC			; StatisticsDialog::`scalar deleting destructor', COMDAT
; _this$ = ecx
  00000	55		 push	 ebp
  00001	8b ec		 mov	 ebp, esp
  00003	51		 push	 ecx
  00004	c7 45 fc cc cc
	cc cc		 mov	 DWORD PTR [ebp-4], -858993460 ; ccccccccH
  0000b	89 4d fc	 mov	 DWORD PTR _this$[ebp], ecx
  0000e	8b 4d fc	 mov	 ecx, DWORD PTR _this$[ebp]
  00011	e8 00 00 00 00	 call	 ??1StatisticsDialog@@UAE@XZ
  00016	8b 45 08	 mov	 eax, DWORD PTR ___flags$[ebp]
  00019	83 e0 01	 and	 eax, 1
  0001c	74 24		 je	 SHORT $LN2@scalar
  0001e	8b 4d 08	 mov	 ecx, DWORD PTR ___flags$[ebp]
  00021	83 e1 04	 and	 ecx, 4
  00024	75 0b		 jne	 SHORT $LN3@scalar
  00026	8b 55 fc	 mov	 edx, DWORD PTR _this$[ebp]
  00029	52		 push	 edx
  0002a	e8 00 00 00 00	 call	 ??3CObject@@SGXPAX@Z	; CObject::operator delete
  0002f	eb 11		 jmp	 SHORT $LN2@scalar
$LN3@scalar:
  00031	68 f0 00 00 00	 push	 240			; 000000f0H
  00036	8b 45 fc	 mov	 eax, DWORD PTR _this$[ebp]
  00039	50		 push	 eax
  0003a	e8 00 00 00 00	 call	 ?__global_delete@@YAXPAXI@Z ; __global_delete
  0003f	83 c4 08	 add	 esp, 8
$LN2@scalar:
  00042	8b 45 fc	 mov	 eax, DWORD PTR _this$[ebp]
  00045	83 c4 04	 add	 esp, 4
  00048	3b ec		 cmp	 ebp, esp
  0004a	e8 00 00 00 00	 call	 __RTC_CheckEsp
  0004f	8b e5		 mov	 esp, ebp
  00051	5d		 pop	 ebp
  00052	c2 04 00	 ret	 4
??_GStatisticsDialog@@UAEPAXI@Z ENDP			; StatisticsDialog::`scalar deleting destructor'
_TEXT	ENDS
; Function compile flags: /Odtp /RTCsu
;	COMDAT ??1StatisticsDialog@@UAE@XZ
_TEXT	SEGMENT
_this$ = -4						; size = 4
??1StatisticsDialog@@UAE@XZ PROC			; StatisticsDialog::~StatisticsDialog, COMDAT
; _this$ = ecx
  00000	55		 push	 ebp
  00001	8b ec		 mov	 ebp, esp
  00003	51		 push	 ecx
  00004	c7 45 fc cc cc
	cc cc		 mov	 DWORD PTR [ebp-4], -858993460 ; ccccccccH
  0000b	89 4d fc	 mov	 DWORD PTR _this$[ebp], ecx
  0000e	8b 4d fc	 mov	 ecx, DWORD PTR _this$[ebp]
  00011	e8 00 00 00 00	 call	 ??1CDialog@@UAE@XZ	; CDialog::~CDialog
  00016	83 c4 04	 add	 esp, 4
  00019	3b ec		 cmp	 ebp, esp
  0001b	e8 00 00 00 00	 call	 __RTC_CheckEsp
  00020	8b e5		 mov	 esp, ebp
  00022	5d		 pop	 ebp
  00023	c3		 ret	 0
??1StatisticsDialog@@UAE@XZ ENDP			; StatisticsDialog::~StatisticsDialog
_TEXT	ENDS
; Function compile flags: /Odtp /RTCsu
; File C:\Users\15485\Desktop\工程之星点格棋\工程之星点格棋\StatisticsDialog.cpp
_TEXT	SEGMENT
_this$ = -4						; size = 4
?GetMessageMap@StatisticsDialog@@MBEPBUAFX_MSGMAP@@XZ PROC ; StatisticsDialog::GetMessageMap
; _this$ = ecx

; 84   : BEGIN_MESSAGE_MAP(StatisticsDialog, CDialog)

  00000	55		 push	 ebp
  00001	8b ec		 mov	 ebp, esp
  00003	51		 push	 ecx
  00004	c7 45 fc cc cc
	cc cc		 mov	 DWORD PTR [ebp-4], -858993460 ; ccccccccH
  0000b	89 4d fc	 mov	 DWORD PTR _this$[ebp], ecx
  0000e	e8 00 00 00 00	 call	 ?GetThisMessageMap@StatisticsDialog@@KGPBUAFX_MSGMAP@@XZ ; StatisticsDialog::GetThisMessageMap
  00013	83 c4 04	 add	 esp, 4
  00016	3b ec		 cmp	 ebp, esp
  00018	e8 00 00 00 00	 call	 __RTC_CheckEsp
  0001d	8b e5		 mov	 esp, ebp
  0001f	5d		 pop	 ebp
  00020	c3		 ret	 0
?GetMessageMap@StatisticsDialog@@MBEPBUAFX_MSGMAP@@XZ ENDP ; StatisticsDialog::GetMessageMap
_TEXT	ENDS
; Function compile flags: /Odtp /RTCsu
; File C:\Users\15485\Desktop\工程之星点格棋\工程之星点格棋\StatisticsDialog.cpp
_TEXT	SEGMENT
?GetThisMessageMap@StatisticsDialog@@KGPBUAFX_MSGMAP@@XZ PROC ; StatisticsDialog::GetThisMessageMap

; 84   : BEGIN_MESSAGE_MAP(StatisticsDialog, CDialog)

  00000	55		 push	 ebp
  00001	8b ec		 mov	 ebp, esp

; 85   : 	//{{AFX_MSG_MAP(StatisticsDialog)
; 86   : 		// NOTE: the ClassWizard will add message map macros here
; 87   : 	//}}AFX_MSG_MAP
; 88   : END_MESSAGE_MAP()

  00003	b8 00 00 00 00	 mov	 eax, OFFSET ?messageMap@?1??GetThisMessageMap@StatisticsDialog@@KGPBUAFX_MSGMAP@@XZ@4U3@B
  00008	5d		 pop	 ebp
  00009	c3		 ret	 0
?GetThisMessageMap@StatisticsDialog@@KGPBUAFX_MSGMAP@@XZ ENDP ; StatisticsDialog::GetThisMessageMap
_TEXT	ENDS
; Function compile flags: /Odtp /RTCsu
; File C:\Users\15485\Desktop\工程之星点格棋\工程之星点格棋\StatisticsDialog.cpp
_TEXT	SEGMENT
_this$ = -4						; size = 4
_pDX$ = 8						; size = 4
?DoDataExchange@StatisticsDialog@@MAEXPAVCDataExchange@@@Z PROC ; StatisticsDialog::DoDataExchange
; _this$ = ecx

; 60   : {

  00000	55		 push	 ebp
  00001	8b ec		 mov	 ebp, esp
  00003	51		 push	 ecx
  00004	c7 45 fc cc cc
	cc cc		 mov	 DWORD PTR [ebp-4], -858993460 ; ccccccccH
  0000b	89 4d fc	 mov	 DWORD PTR _this$[ebp], ecx

; 61   : 	CDialog::DoDataExchange(pDX);

  0000e	8b 45 08	 mov	 eax, DWORD PTR _pDX$[ebp]
  00011	50		 push	 eax
  00012	8b 4d fc	 mov	 ecx, DWORD PTR _this$[ebp]
  00015	e8 00 00 00 00	 call	 ?DoDataExchange@CWnd@@MAEXPAVCDataExchange@@@Z ; CWnd::DoDataExchange

; 62   : 	//{{AFX_DATA_MAP(StatisticsDialog)
; 63   : 	DDX_Text(pDX, IDC_TotalNimHashEntries, m_totalNimHashEntries);

  0001a	8b 4d fc	 mov	 ecx, DWORD PTR _this$[ebp]
  0001d	81 c1 a8 00 00
	00		 add	 ecx, 168		; 000000a8H
  00023	51		 push	 ecx
  00024	68 f6 03 00 00	 push	 1014			; 000003f6H
  00029	8b 55 08	 mov	 edx, DWORD PTR _pDX$[ebp]
  0002c	52		 push	 edx
  0002d	e8 00 00 00 00	 call	 ?DDX_Text@@YGXPAVCDataExchange@@HAAH@Z ; DDX_Text

; 64   : 	DDX_Text(pDX, IDC_NimExistsTrue, m_nimExistsTrue);

  00032	8b 45 fc	 mov	 eax, DWORD PTR _this$[ebp]
  00035	05 ac 00 00 00	 add	 eax, 172		; 000000acH
  0003a	50		 push	 eax
  0003b	68 fa 03 00 00	 push	 1018			; 000003faH
  00040	8b 4d 08	 mov	 ecx, DWORD PTR _pDX$[ebp]
  00043	51		 push	 ecx
  00044	e8 00 00 00 00	 call	 ?DDX_Text@@YGXPAVCDataExchange@@HAAH@Z ; DDX_Text

; 65   : 	DDX_Text(pDX, IDC_NimExistsCalls, m_nimExistsCalls);

  00049	8b 55 fc	 mov	 edx, DWORD PTR _this$[ebp]
  0004c	81 c2 b0 00 00
	00		 add	 edx, 176		; 000000b0H
  00052	52		 push	 edx
  00053	68 fc 03 00 00	 push	 1020			; 000003fcH
  00058	8b 45 08	 mov	 eax, DWORD PTR _pDX$[ebp]
  0005b	50		 push	 eax
  0005c	e8 00 00 00 00	 call	 ?DDX_Text@@YGXPAVCDataExchange@@HAAH@Z ; DDX_Text

; 66   : 	DDX_Text(pDX, IDC_NimHashCacheCrash, m_nimHashCacheCrash);

  00061	8b 4d fc	 mov	 ecx, DWORD PTR _this$[ebp]
  00064	81 c1 b4 00 00
	00		 add	 ecx, 180		; 000000b4H
  0006a	51		 push	 ecx
  0006b	68 fd 03 00 00	 push	 1021			; 000003fdH
  00070	8b 55 08	 mov	 edx, DWORD PTR _pDX$[ebp]
  00073	52		 push	 edx
  00074	e8 00 00 00 00	 call	 ?DDX_Text@@YGXPAVCDataExchange@@HAAH@Z ; DDX_Text

; 67   : 	DDX_Text(pDX, IDC_PointsCacheUpdate, m_pointsCacheUpdate);

  00079	8b 45 fc	 mov	 eax, DWORD PTR _this$[ebp]
  0007c	05 b8 00 00 00	 add	 eax, 184		; 000000b8H
  00081	50		 push	 eax
  00082	68 02 04 00 00	 push	 1026			; 00000402H
  00087	8b 4d 08	 mov	 ecx, DWORD PTR _pDX$[ebp]
  0008a	51		 push	 ecx
  0008b	e8 00 00 00 00	 call	 ?DDX_Text@@YGXPAVCDataExchange@@HAAH@Z ; DDX_Text

; 68   : 	DDX_Text(pDX, IDC_PointsExistsCalls, m_pointsExistsCalls);

  00090	8b 55 fc	 mov	 edx, DWORD PTR _this$[ebp]
  00093	81 c2 bc 00 00
	00		 add	 edx, 188		; 000000bcH
  00099	52		 push	 edx
  0009a	68 ff 03 00 00	 push	 1023			; 000003ffH
  0009f	8b 45 08	 mov	 eax, DWORD PTR _pDX$[ebp]
  000a2	50		 push	 eax
  000a3	e8 00 00 00 00	 call	 ?DDX_Text@@YGXPAVCDataExchange@@HAAH@Z ; DDX_Text

; 69   : 	DDX_Text(pDX, IDC_PointsExistsTrue, m_pointsExistsTrue);

  000a8	8b 4d fc	 mov	 ecx, DWORD PTR _this$[ebp]
  000ab	81 c1 c0 00 00
	00		 add	 ecx, 192		; 000000c0H
  000b1	51		 push	 ecx
  000b2	68 00 04 00 00	 push	 1024			; 00000400H
  000b7	8b 55 08	 mov	 edx, DWORD PTR _pDX$[ebp]
  000ba	52		 push	 edx
  000bb	e8 00 00 00 00	 call	 ?DDX_Text@@YGXPAVCDataExchange@@HAAH@Z ; DDX_Text

; 70   : 	DDX_Text(pDX, IDC_PointsHashCacheCrash, m_pointsHashCacheCrash);

  000c0	8b 45 fc	 mov	 eax, DWORD PTR _this$[ebp]
  000c3	05 c4 00 00 00	 add	 eax, 196		; 000000c4H
  000c8	50		 push	 eax
  000c9	68 01 04 00 00	 push	 1025			; 00000401H
  000ce	8b 4d 08	 mov	 ecx, DWORD PTR _pDX$[ebp]
  000d1	51		 push	 ecx
  000d2	e8 00 00 00 00	 call	 ?DDX_Text@@YGXPAVCDataExchange@@HAAH@Z ; DDX_Text

; 71   : 	DDX_Text(pDX, IDC_TotalPointsCacheEntries, m_totalPointsCacheEntries);

  000d7	8b 55 fc	 mov	 edx, DWORD PTR _this$[ebp]
  000da	81 c2 c8 00 00
	00		 add	 edx, 200		; 000000c8H
  000e0	52		 push	 edx
  000e1	68 fe 03 00 00	 push	 1022			; 000003feH
  000e6	8b 45 08	 mov	 eax, DWORD PTR _pDX$[ebp]
  000e9	50		 push	 eax
  000ea	e8 00 00 00 00	 call	 ?DDX_Text@@YGXPAVCDataExchange@@HAAH@Z ; DDX_Text

; 72   : 	DDX_Text(pDX, IDC_CDCacheUpdate, m_cdCacheUpdate);

  000ef	8b 4d fc	 mov	 ecx, DWORD PTR _this$[ebp]
  000f2	81 c1 cc 00 00
	00		 add	 ecx, 204		; 000000ccH
  000f8	51		 push	 ecx
  000f9	68 07 04 00 00	 push	 1031			; 00000407H
  000fe	8b 55 08	 mov	 edx, DWORD PTR _pDX$[ebp]
  00101	52		 push	 edx
  00102	e8 00 00 00 00	 call	 ?DDX_Text@@YGXPAVCDataExchange@@HAAH@Z ; DDX_Text

; 73   : 	DDX_Text(pDX, IDC_CDExistsCalls, m_cdExistsCalls);

  00107	8b 45 fc	 mov	 eax, DWORD PTR _this$[ebp]
  0010a	05 d0 00 00 00	 add	 eax, 208		; 000000d0H
  0010f	50		 push	 eax
  00110	68 04 04 00 00	 push	 1028			; 00000404H
  00115	8b 4d 08	 mov	 ecx, DWORD PTR _pDX$[ebp]
  00118	51		 push	 ecx
  00119	e8 00 00 00 00	 call	 ?DDX_Text@@YGXPAVCDataExchange@@HAAH@Z ; DDX_Text

; 74   : 	DDX_Text(pDX, IDC_CDExistsTrue, m_cdExistsTrue);

  0011e	8b 55 fc	 mov	 edx, DWORD PTR _this$[ebp]
  00121	81 c2 d4 00 00
	00		 add	 edx, 212		; 000000d4H
  00127	52		 push	 edx
  00128	68 05 04 00 00	 push	 1029			; 00000405H
  0012d	8b 45 08	 mov	 eax, DWORD PTR _pDX$[ebp]
  00130	50		 push	 eax
  00131	e8 00 00 00 00	 call	 ?DDX_Text@@YGXPAVCDataExchange@@HAAH@Z ; DDX_Text

; 75   : 	DDX_Text(pDX, IDC_CDHashCacheCrash, m_cdHashCachCrash);

  00136	8b 4d fc	 mov	 ecx, DWORD PTR _this$[ebp]
  00139	81 c1 d8 00 00
	00		 add	 ecx, 216		; 000000d8H
  0013f	51		 push	 ecx
  00140	68 06 04 00 00	 push	 1030			; 00000406H
  00145	8b 55 08	 mov	 edx, DWORD PTR _pDX$[ebp]
  00148	52		 push	 edx
  00149	e8 00 00 00 00	 call	 ?DDX_Text@@YGXPAVCDataExchange@@HAAH@Z ; DDX_Text

; 76   : 	DDX_Text(pDX, IDC_TotalCDCacheEntries, m_totalCDCacheEntries);

  0014e	8b 45 fc	 mov	 eax, DWORD PTR _this$[ebp]
  00151	05 dc 00 00 00	 add	 eax, 220		; 000000dcH
  00156	50		 push	 eax
  00157	68 03 04 00 00	 push	 1027			; 00000403H
  0015c	8b 4d 08	 mov	 ecx, DWORD PTR _pDX$[ebp]
  0015f	51		 push	 ecx
  00160	e8 00 00 00 00	 call	 ?DDX_Text@@YGXPAVCDataExchange@@HAAH@Z ; DDX_Text

; 77   : 	DDX_Text(pDX, IDC_NimHashSize, m_nimHashSize);

  00165	8b 55 fc	 mov	 edx, DWORD PTR _this$[ebp]
  00168	81 c2 e0 00 00
	00		 add	 edx, 224		; 000000e0H
  0016e	52		 push	 edx
  0016f	68 08 04 00 00	 push	 1032			; 00000408H
  00174	8b 45 08	 mov	 eax, DWORD PTR _pDX$[ebp]
  00177	50		 push	 eax
  00178	e8 00 00 00 00	 call	 ?DDX_Text@@YGXPAVCDataExchange@@HAAI@Z ; DDX_Text

; 78   : 	DDX_Text(pDX, IDC_cdHashSize, m_cdHashSize);

  0017d	8b 4d fc	 mov	 ecx, DWORD PTR _this$[ebp]
  00180	81 c1 e4 00 00
	00		 add	 ecx, 228		; 000000e4H
  00186	51		 push	 ecx
  00187	68 0a 04 00 00	 push	 1034			; 0000040aH
  0018c	8b 55 08	 mov	 edx, DWORD PTR _pDX$[ebp]
  0018f	52		 push	 edx
  00190	e8 00 00 00 00	 call	 ?DDX_Text@@YGXPAVCDataExchange@@HAAI@Z ; DDX_Text

; 79   : 	DDX_Text(pDX, IDC_pointsHashSize, m_pointsHashSize);

  00195	8b 45 fc	 mov	 eax, DWORD PTR _this$[ebp]
  00198	05 e8 00 00 00	 add	 eax, 232		; 000000e8H
  0019d	50		 push	 eax
  0019e	68 09 04 00 00	 push	 1033			; 00000409H
  001a3	8b 4d 08	 mov	 ecx, DWORD PTR _pDX$[ebp]
  001a6	51		 push	 ecx
  001a7	e8 00 00 00 00	 call	 ?DDX_Text@@YGXPAVCDataExchange@@HAAI@Z ; DDX_Text

; 80   : 	//}}AFX_DATA_MAP
; 81   : }

  001ac	83 c4 04	 add	 esp, 4
  001af	3b ec		 cmp	 ebp, esp
  001b1	e8 00 00 00 00	 call	 __RTC_CheckEsp
  001b6	8b e5		 mov	 esp, ebp
  001b8	5d		 pop	 ebp
  001b9	c2 04 00	 ret	 4
?DoDataExchange@StatisticsDialog@@MAEXPAVCDataExchange@@@Z ENDP ; StatisticsDialog::DoDataExchange
_TEXT	ENDS
; Function compile flags: /Odtp /RTCsu
; File C:\Users\15485\Desktop\工程之星点格棋\工程之星点格棋\StatisticsDialog.cpp
_TEXT	SEGMENT
_this$ = -4						; size = 4
_pParent$ = 8						; size = 4
??0StatisticsDialog@@QAE@PAVCWnd@@@Z PROC		; StatisticsDialog::StatisticsDialog
; _this$ = ecx

; 36   : {

  00000	55		 push	 ebp
  00001	8b ec		 mov	 ebp, esp
  00003	51		 push	 ecx
  00004	c7 45 fc cc cc
	cc cc		 mov	 DWORD PTR [ebp-4], -858993460 ; ccccccccH
  0000b	89 4d fc	 mov	 DWORD PTR _this$[ebp], ecx

; 35   : 	: CDialog(StatisticsDialog::IDD, pParent)

  0000e	8b 45 08	 mov	 eax, DWORD PTR _pParent$[ebp]
  00011	50		 push	 eax
  00012	68 87 00 00 00	 push	 135			; 00000087H
  00017	8b 4d fc	 mov	 ecx, DWORD PTR _this$[ebp]
  0001a	e8 00 00 00 00	 call	 ??0CDialog@@QAE@IPAVCWnd@@@Z ; CDialog::CDialog

; 36   : {

  0001f	8b 4d fc	 mov	 ecx, DWORD PTR _this$[ebp]
  00022	c7 01 00 00 00
	00		 mov	 DWORD PTR [ecx], OFFSET ??_7StatisticsDialog@@6B@

; 37   : 	//{{AFX_DATA_INIT(StatisticsDialog)
; 38   : 	m_totalNimHashEntries = totalNimHashEntries;

  00028	8b 55 fc	 mov	 edx, DWORD PTR _this$[ebp]
  0002b	a1 00 00 00 00	 mov	 eax, DWORD PTR ?totalNimHashEntries@@3HA ; totalNimHashEntries
  00030	89 82 a8 00 00
	00		 mov	 DWORD PTR [edx+168], eax

; 39   : 	m_nimExistsTrue = nimExistsTrue;

  00036	8b 4d fc	 mov	 ecx, DWORD PTR _this$[ebp]
  00039	8b 15 00 00 00
	00		 mov	 edx, DWORD PTR ?nimExistsTrue@@3HA ; nimExistsTrue
  0003f	89 91 ac 00 00
	00		 mov	 DWORD PTR [ecx+172], edx

; 40   : 	m_nimExistsCalls = nimExistsCalls;

  00045	8b 45 fc	 mov	 eax, DWORD PTR _this$[ebp]
  00048	8b 0d 00 00 00
	00		 mov	 ecx, DWORD PTR ?nimExistsCalls@@3HA ; nimExistsCalls
  0004e	89 88 b0 00 00
	00		 mov	 DWORD PTR [eax+176], ecx

; 41   : 	m_nimHashCacheCrash = nimHashCacheCrash;

  00054	8b 55 fc	 mov	 edx, DWORD PTR _this$[ebp]
  00057	a1 00 00 00 00	 mov	 eax, DWORD PTR ?nimHashCacheCrash@@3HA ; nimHashCacheCrash
  0005c	89 82 b4 00 00
	00		 mov	 DWORD PTR [edx+180], eax

; 42   : 	m_pointsCacheUpdate = pointsCacheUpdate;

  00062	8b 4d fc	 mov	 ecx, DWORD PTR _this$[ebp]
  00065	8b 15 00 00 00
	00		 mov	 edx, DWORD PTR ?pointsCacheUpdate@@3HA ; pointsCacheUpdate
  0006b	89 91 b8 00 00
	00		 mov	 DWORD PTR [ecx+184], edx

; 43   : 	m_pointsExistsCalls = pointsExistsCalls;

  00071	8b 45 fc	 mov	 eax, DWORD PTR _this$[ebp]
  00074	8b 0d 00 00 00
	00		 mov	 ecx, DWORD PTR ?pointsExistsCalls@@3HA ; pointsExistsCalls
  0007a	89 88 bc 00 00
	00		 mov	 DWORD PTR [eax+188], ecx

; 44   : 	m_pointsExistsTrue = pointsExistsTrue;

  00080	8b 55 fc	 mov	 edx, DWORD PTR _this$[ebp]
  00083	a1 00 00 00 00	 mov	 eax, DWORD PTR ?pointsExistsTrue@@3HA ; pointsExistsTrue
  00088	89 82 c0 00 00
	00		 mov	 DWORD PTR [edx+192], eax

; 45   : 	m_pointsHashCacheCrash = pointsHashCacheCrash;

  0008e	8b 4d fc	 mov	 ecx, DWORD PTR _this$[ebp]
  00091	8b 15 00 00 00
	00		 mov	 edx, DWORD PTR ?pointsHashCacheCrash@@3HA ; pointsHashCacheCrash
  00097	89 91 c4 00 00
	00		 mov	 DWORD PTR [ecx+196], edx

; 46   : 	m_totalPointsCacheEntries = totalPointsCacheEntries;

  0009d	8b 45 fc	 mov	 eax, DWORD PTR _this$[ebp]
  000a0	8b 0d 00 00 00
	00		 mov	 ecx, DWORD PTR ?totalPointsCacheEntries@@3HA ; totalPointsCacheEntries
  000a6	89 88 c8 00 00
	00		 mov	 DWORD PTR [eax+200], ecx

; 47   : 	m_cdCacheUpdate = cdCacheUpdate;

  000ac	8b 55 fc	 mov	 edx, DWORD PTR _this$[ebp]
  000af	a1 00 00 00 00	 mov	 eax, DWORD PTR ?cdCacheUpdate@@3HA ; cdCacheUpdate
  000b4	89 82 cc 00 00
	00		 mov	 DWORD PTR [edx+204], eax

; 48   : 	m_cdExistsCalls = cdExistsCalls;

  000ba	8b 4d fc	 mov	 ecx, DWORD PTR _this$[ebp]
  000bd	8b 15 00 00 00
	00		 mov	 edx, DWORD PTR ?cdExistsCalls@@3HA ; cdExistsCalls
  000c3	89 91 d0 00 00
	00		 mov	 DWORD PTR [ecx+208], edx

; 49   : 	m_cdExistsTrue = cdExistsTrue;

  000c9	8b 45 fc	 mov	 eax, DWORD PTR _this$[ebp]
  000cc	8b 0d 00 00 00
	00		 mov	 ecx, DWORD PTR ?cdExistsTrue@@3HA ; cdExistsTrue
  000d2	89 88 d4 00 00
	00		 mov	 DWORD PTR [eax+212], ecx

; 50   : 	m_cdHashCachCrash = cdHashCacheCrash;

  000d8	8b 55 fc	 mov	 edx, DWORD PTR _this$[ebp]
  000db	a1 00 00 00 00	 mov	 eax, DWORD PTR ?cdHashCacheCrash@@3HA ; cdHashCacheCrash
  000e0	89 82 d8 00 00
	00		 mov	 DWORD PTR [edx+216], eax

; 51   : 	m_totalCDCacheEntries = totalcdCacheEntries;

  000e6	8b 4d fc	 mov	 ecx, DWORD PTR _this$[ebp]
  000e9	8b 15 00 00 00
	00		 mov	 edx, DWORD PTR ?totalcdCacheEntries@@3HA ; totalcdCacheEntries
  000ef	89 91 dc 00 00
	00		 mov	 DWORD PTR [ecx+220], edx

; 52   : 	m_nimHashSize = NIMHASHSIZE;

  000f5	8b 45 fc	 mov	 eax, DWORD PTR _this$[ebp]
  000f8	c7 80 e0 00 00
	00 13 5e 2d 00	 mov	 DWORD PTR [eax+224], 2973203 ; 002d5e13H

; 53   : 	m_cdHashSize = CDHASHSIZE;

  00102	8b 4d fc	 mov	 ecx, DWORD PTR _this$[ebp]
  00105	c7 81 e4 00 00
	00 13 5e 2d 00	 mov	 DWORD PTR [ecx+228], 2973203 ; 002d5e13H

; 54   : 	m_pointsHashSize = SWHASHSIZE;

  0010f	8b 55 fc	 mov	 edx, DWORD PTR _this$[ebp]
  00112	c7 82 e8 00 00
	00 17 5e 2d 00	 mov	 DWORD PTR [edx+232], 2973207 ; 002d5e17H

; 55   : 	//}}AFX_DATA_INIT
; 56   : }

  0011c	8b 45 fc	 mov	 eax, DWORD PTR _this$[ebp]
  0011f	83 c4 04	 add	 esp, 4
  00122	3b ec		 cmp	 ebp, esp
  00124	e8 00 00 00 00	 call	 __RTC_CheckEsp
  00129	8b e5		 mov	 esp, ebp
  0012b	5d		 pop	 ebp
  0012c	c2 04 00	 ret	 4
??0StatisticsDialog@@QAE@PAVCWnd@@@Z ENDP		; StatisticsDialog::StatisticsDialog
_TEXT	ENDS
; Function compile flags: /Odtp /RTCsu
; File C:\Users\15485\Desktop\工程之星点格棋\工程之星点格棋\StatisticsDialog.cpp
;	COMDAT ?__empty_global_delete@@YAXPAXI@Z
_TEXT	SEGMENT
___formal$ = 8						; size = 4
___formal$ = 12						; size = 4
?__empty_global_delete@@YAXPAXI@Z PROC			; __empty_global_delete, COMDAT

  00000	55		 push	 ebp
  00001	8b ec		 mov	 ebp, esp
  00003	5d		 pop	 ebp
  00004	c3		 ret	 0
?__empty_global_delete@@YAXPAXI@Z ENDP			; __empty_global_delete
_TEXT	ENDS
; Function compile flags: /Odtp /RTCsu
; File C:\Users\15485\Desktop\工程之星点格棋\工程之星点格棋\StatisticsDialog.cpp
;	COMDAT ?__empty_global_delete@@YAXPAX@Z
_TEXT	SEGMENT
___formal$ = 8						; size = 4
?__empty_global_delete@@YAXPAX@Z PROC			; __empty_global_delete, COMDAT

  00000	55		 push	 ebp
  00001	8b ec		 mov	 ebp, esp
  00003	5d		 pop	 ebp
  00004	c3		 ret	 0
?__empty_global_delete@@YAXPAX@Z ENDP			; __empty_global_delete
_TEXT	ENDS
END
