; Listing generated by Microsoft (R) Optimizing Compiler Version 19.35.32217.1 

	TITLE	C:\Users\15485\Desktop\工程之星点格棋\工程之星点格棋\Debug\Tables.obj
	.686P
	.XMM
	include listing.inc
	.model	flat

INCLUDELIB MSVCRTD
INCLUDELIB OLDNAMES

PUBLIC	?__empty_global_delete@@YAXPAX@Z		; __empty_global_delete
PUBLIC	?__empty_global_delete@@YAXPAXI@Z		; __empty_global_delete
PUBLIC	?rrcc@@3VRRCC@@A				; rrcc
EXTRN	_atexit:PROC
EXTRN	??0RRCC@@QAE@XZ:PROC				; RRCC::RRCC
EXTRN	??1RRCC@@QAE@XZ:PROC				; RRCC::~RRCC
EXTRN	__RTC_CheckEsp:PROC
EXTRN	__RTC_InitBase:PROC
EXTRN	__RTC_Shutdown:PROC
_BSS	SEGMENT
?rrcc@@3VRRCC@@A DB 02d0H DUP (?)			; rrcc
_BSS	ENDS
CRT$XCU	SEGMENT
?rrcc$initializer$@@3P6AXXZA DD FLAT:??__Errcc@@YAXXZ	; rrcc$initializer$
CRT$XCU	ENDS
;	COMDAT rtc$TMZ
rtc$TMZ	SEGMENT
__RTC_Shutdown.rtc$TMZ DD FLAT:__RTC_Shutdown
rtc$TMZ	ENDS
;	COMDAT rtc$IMZ
rtc$IMZ	SEGMENT
__RTC_InitBase.rtc$IMZ DD FLAT:__RTC_InitBase
rtc$IMZ	ENDS
; Function compile flags: /Odtp /RTCsu
;	COMDAT ??__Frrcc@@YAXXZ
text$yd	SEGMENT
??__Frrcc@@YAXXZ PROC					; `dynamic atexit destructor for 'rrcc'', COMDAT
  00000	55		 push	 ebp
  00001	8b ec		 mov	 ebp, esp
  00003	b9 00 00 00 00	 mov	 ecx, OFFSET ?rrcc@@3VRRCC@@A ; rrcc
  00008	e8 00 00 00 00	 call	 ??1RRCC@@QAE@XZ		; RRCC::~RRCC
  0000d	3b ec		 cmp	 ebp, esp
  0000f	e8 00 00 00 00	 call	 __RTC_CheckEsp
  00014	5d		 pop	 ebp
  00015	c3		 ret	 0
??__Frrcc@@YAXXZ ENDP					; `dynamic atexit destructor for 'rrcc''
text$yd	ENDS
; Function compile flags: /Odtp /RTCsu
; File C:\Users\15485\Desktop\工程之星点格棋\工程之星点格棋\Tables.cpp
;	COMDAT ??__Errcc@@YAXXZ
text$di	SEGMENT
??__Errcc@@YAXXZ PROC					; `dynamic initializer for 'rrcc'', COMDAT

; 6    : RRCC rrcc;

  00000	55		 push	 ebp
  00001	8b ec		 mov	 ebp, esp
  00003	b9 00 00 00 00	 mov	 ecx, OFFSET ?rrcc@@3VRRCC@@A ; rrcc
  00008	e8 00 00 00 00	 call	 ??0RRCC@@QAE@XZ		; RRCC::RRCC
  0000d	68 00 00 00 00	 push	 OFFSET ??__Frrcc@@YAXXZ	; `dynamic atexit destructor for 'rrcc''
  00012	e8 00 00 00 00	 call	 _atexit
  00017	83 c4 04	 add	 esp, 4
  0001a	3b ec		 cmp	 ebp, esp
  0001c	e8 00 00 00 00	 call	 __RTC_CheckEsp
  00021	5d		 pop	 ebp
  00022	c3		 ret	 0
??__Errcc@@YAXXZ ENDP					; `dynamic initializer for 'rrcc''
text$di	ENDS
; Function compile flags: /Odtp /RTCsu
; File C:\Users\15485\Desktop\工程之星点格棋\工程之星点格棋\Tables.cpp
;	COMDAT ?__empty_global_delete@@YAXPAXI@Z
_TEXT	SEGMENT
___formal$ = 8						; size = 4
___formal$ = 12						; size = 4
?__empty_global_delete@@YAXPAXI@Z PROC			; __empty_global_delete, COMDAT

  00000	55		 push	 ebp
  00001	8b ec		 mov	 ebp, esp
  00003	5d		 pop	 ebp
  00004	c3		 ret	 0
?__empty_global_delete@@YAXPAXI@Z ENDP			; __empty_global_delete
_TEXT	ENDS
; Function compile flags: /Odtp /RTCsu
; File C:\Users\15485\Desktop\工程之星点格棋\工程之星点格棋\Tables.cpp
;	COMDAT ?__empty_global_delete@@YAXPAX@Z
_TEXT	SEGMENT
___formal$ = 8						; size = 4
?__empty_global_delete@@YAXPAX@Z PROC			; __empty_global_delete, COMDAT

  00000	55		 push	 ebp
  00001	8b ec		 mov	 ebp, esp
  00003	5d		 pop	 ebp
  00004	c3		 ret	 0
?__empty_global_delete@@YAXPAX@Z ENDP			; __empty_global_delete
_TEXT	ENDS
END
