; Listing generated by Microsoft (R) Optimizing Compiler Version 19.35.32217.1 

	TITLE	C:\Users\15485\Desktop\工程之星点格棋\工程之星点格棋\Debug\TestCreation.obj
	.686P
	.XMM
	include listing.inc
	.model	flat

INCLUDELIB MSVCRTD
INCLUDELIB OLDNAMES

CONST	SEGMENT
$SG226054 DB	'Text Files (*.txt)|*.txt|All Files (*.*)|*.*||', 00H
	ORG $+1
$SG226055 DB	'txt', 00H
CONST	ENDS
PUBLIC	?__empty_global_delete@@YAXPAX@Z		; __empty_global_delete
PUBLIC	?__empty_global_delete@@YAXPAXI@Z		; __empty_global_delete
PUBLIC	?Width@DOTS_AND_BOXES@@QBEHXZ			; DOTS_AND_BOXES::Width
PUBLIC	?Height@DOTS_AND_BOXES@@QBEHXZ			; DOTS_AND_BOXES::Height
PUBLIC	?GameSize@CNewBoxesDoc@@QAE?AUtagPOINT@@XZ	; CNewBoxesDoc::GameSize
PUBLIC	?NimstringValueToVerify@CNewBoxesDoc@@QAEHXZ	; CNewBoxesDoc::NimstringValueToVerify
PUBLIC	?NimstringValueToVerify@CNewBoxesDoc@@QAEXH@Z	; CNewBoxesDoc::NimstringValueToVerify
PUBLIC	??0TestCreation@@QAE@PAVCWnd@@@Z		; TestCreation::TestCreation
PUBLIC	?DoDataExchange@TestCreation@@MAEXPAVCDataExchange@@@Z ; TestCreation::DoDataExchange
PUBLIC	?OnOK@TestCreation@@MAEXXZ			; TestCreation::OnOK
PUBLIC	?OnInitDialog@TestCreation@@MAEHXZ		; TestCreation::OnInitDialog
PUBLIC	?GetThisMessageMap@TestCreation@@KGPBUAFX_MSGMAP@@XZ ; TestCreation::GetThisMessageMap
PUBLIC	?GetMessageMap@TestCreation@@MBEPBUAFX_MSGMAP@@XZ ; TestCreation::GetMessageMap
PUBLIC	?PackDataIntoGame@TestCreation@@IAEXXZ		; TestCreation::PackDataIntoGame
PUBLIC	?ExtractDataFromGame@TestCreation@@IAEXXZ	; TestCreation::ExtractDataFromGame
PUBLIC	?RemoveOwners@TestCreation@@IAEXPAW4OWNER_TYPE@@@Z ; TestCreation::RemoveOwners
PUBLIC	?ReplaceOwners@TestCreation@@IAEXPAW4OWNER_TYPE@@@Z ; TestCreation::ReplaceOwners
PUBLIC	??1TestCreation@@UAE@XZ				; TestCreation::~TestCreation
PUBLIC	??_GTestCreation@@UAEPAXI@Z			; TestCreation::`scalar deleting destructor'
PUBLIC	??_R1A@?0A@EA@CObject@@8			; CObject::`RTTI Base Class Descriptor at (0,-1,0,64)'
PUBLIC	??_R0?AVCObject@@@8				; CObject `RTTI Type Descriptor'
PUBLIC	??_R3CObject@@8					; CObject::`RTTI Class Hierarchy Descriptor'
PUBLIC	??_R2CObject@@8					; CObject::`RTTI Base Class Array'
PUBLIC	??_R1A@?0A@EA@CDialog@@8			; CDialog::`RTTI Base Class Descriptor at (0,-1,0,64)'
PUBLIC	??_R0?AVCDialog@@@8				; CDialog `RTTI Type Descriptor'
PUBLIC	??_R3CDialog@@8					; CDialog::`RTTI Class Hierarchy Descriptor'
PUBLIC	??_R2CDialog@@8					; CDialog::`RTTI Base Class Array'
PUBLIC	??_R1A@?0A@EA@CWnd@@8				; CWnd::`RTTI Base Class Descriptor at (0,-1,0,64)'
PUBLIC	??_R0?AVCWnd@@@8				; CWnd `RTTI Type Descriptor'
PUBLIC	??_R3CWnd@@8					; CWnd::`RTTI Class Hierarchy Descriptor'
PUBLIC	??_R2CWnd@@8					; CWnd::`RTTI Base Class Array'
PUBLIC	??_R1A@?0A@EA@CCmdTarget@@8			; CCmdTarget::`RTTI Base Class Descriptor at (0,-1,0,64)'
PUBLIC	??_R0?AVCCmdTarget@@@8				; CCmdTarget `RTTI Type Descriptor'
PUBLIC	??_R3CCmdTarget@@8				; CCmdTarget::`RTTI Class Hierarchy Descriptor'
PUBLIC	??_R2CCmdTarget@@8				; CCmdTarget::`RTTI Base Class Array'
PUBLIC	??_7TestCreation@@6B@				; TestCreation::`vftable'
PUBLIC	??_R4TestCreation@@6B@				; TestCreation::`RTTI Complete Object Locator'
PUBLIC	??_R0?AVTestCreation@@@8			; TestCreation `RTTI Type Descriptor'
PUBLIC	??_R3TestCreation@@8				; TestCreation::`RTTI Class Hierarchy Descriptor'
PUBLIC	??_R2TestCreation@@8				; TestCreation::`RTTI Base Class Array'
PUBLIC	??_R1A@?0A@EA@TestCreation@@8			; TestCreation::`RTTI Base Class Descriptor at (0,-1,0,64)'
EXTRN	?__global_delete@@YAXPAXI@Z:PROC		; __global_delete
EXTRN	??3CObject@@SGXPAX@Z:PROC			; CObject::operator delete
EXTRN	?Serialize@CObject@@UAEXAAVCArchive@@@Z:PROC	; CObject::Serialize
EXTRN	__imp_??B?$CSimpleStringT@D$00@ATL@@QBEPBDXZ:PROC
EXTRN	__imp_??1?$CStringT@DV?$StrTraitMFC_DLL@DV?$ChTraitsCRT@D@ATL@@@@@ATL@@QAE@XZ:PROC
EXTRN	??0CFile@@QAE@PBDI@Z:PROC			; CFile::CFile
EXTRN	?Close@CFile@@UAEXXZ:PROC			; CFile::Close
EXTRN	??1CFile@@UAE@XZ:PROC				; CFile::~CFile
EXTRN	??0CArchive@@QAE@PAVCFile@@IHPAX@Z:PROC		; CArchive::CArchive
EXTRN	??1CArchive@@QAE@XZ:PROC			; CArchive::~CArchive
EXTRN	?Close@CArchive@@QAEXXZ:PROC			; CArchive::Close
EXTRN	?DDX_Text@@YGXPAVCDataExchange@@HAAH@Z:PROC	; DDX_Text
EXTRN	?DDX_Check@@YGXPAVCDataExchange@@HAAH@Z:PROC	; DDX_Check
EXTRN	?IsInvokeAllowed@CCmdTarget@@UAEHJ@Z:PROC	; CCmdTarget::IsInvokeAllowed
EXTRN	?GetDispatchIID@CCmdTarget@@UAEHPAU_GUID@@@Z:PROC ; CCmdTarget::GetDispatchIID
EXTRN	?GetTypeInfoCount@CCmdTarget@@UAEIXZ:PROC	; CCmdTarget::GetTypeInfoCount
EXTRN	?GetTypeLibCache@CCmdTarget@@UAEPAVCTypeLibCache@@XZ:PROC ; CCmdTarget::GetTypeLibCache
EXTRN	?GetTypeLib@CCmdTarget@@UAEJKPAPAUITypeLib@@@Z:PROC ; CCmdTarget::GetTypeLib
EXTRN	?GetCommandMap@CCmdTarget@@MBEPBUAFX_OLECMDMAP@@XZ:PROC ; CCmdTarget::GetCommandMap
EXTRN	?GetDispatchMap@CCmdTarget@@MBEPBUAFX_DISPMAP@@XZ:PROC ; CCmdTarget::GetDispatchMap
EXTRN	?GetConnectionMap@CCmdTarget@@MBEPBUAFX_CONNECTIONMAP@@XZ:PROC ; CCmdTarget::GetConnectionMap
EXTRN	?GetEventSinkMap@CCmdTarget@@MBEPBUAFX_EVENTSINKMAP@@XZ:PROC ; CCmdTarget::GetEventSinkMap
EXTRN	?OnCreateAggregates@CCmdTarget@@UAEHXZ:PROC	; CCmdTarget::OnCreateAggregates
EXTRN	?GetInterfaceHook@CCmdTarget@@UAEPAUIUnknown@@PBX@Z:PROC ; CCmdTarget::GetInterfaceHook
EXTRN	?GetExtraConnectionPoints@CCmdTarget@@MAEHPAVCPtrArray@@@Z:PROC ; CCmdTarget::GetExtraConnectionPoints
EXTRN	?GetConnectionHook@CCmdTarget@@MAEPAUIConnectionPoint@@ABU_GUID@@@Z:PROC ; CCmdTarget::GetConnectionHook
EXTRN	?PreSubclassWindow@CWnd@@UAEXXZ:PROC		; CWnd::PreSubclassWindow
EXTRN	?Create@CWnd@@UAEHPBD0KABUtagRECT@@PAV1@IPAUCCreateContext@@@Z:PROC ; CWnd::Create
EXTRN	?CreateEx@CWnd@@UAEHKPBD0KHHHHPAUHWND__@@PAUHMENU__@@PAX@Z:PROC ; CWnd::CreateEx
EXTRN	?CreateEx@CWnd@@UAEHKPBD0KABUtagRECT@@PAV1@IPAX@Z:PROC ; CWnd::CreateEx
EXTRN	?DestroyWindow@CWnd@@UAEHXZ:PROC		; CWnd::DestroyWindow
EXTRN	?PreCreateWindow@CWnd@@UAEHAAUtagCREATESTRUCTA@@@Z:PROC ; CWnd::PreCreateWindow
EXTRN	?CalcWindowRect@CWnd@@UAEXPAUtagRECT@@I@Z:PROC	; CWnd::CalcWindowRect
EXTRN	?GetMenu@CWnd@@UBEPAVCMenu@@XZ:PROC		; CWnd::GetMenu
EXTRN	?SetMenu@CWnd@@UAEHPAVCMenu@@@Z:PROC		; CWnd::SetMenu
EXTRN	?OnToolHitTest@CWnd@@UBEHVCPoint@@PAUtagTOOLINFOA@@@Z:PROC ; CWnd::OnToolHitTest
EXTRN	?GetScrollBarCtrl@CWnd@@UBEPAVCScrollBar@@H@Z:PROC ; CWnd::GetScrollBarCtrl
EXTRN	?UpdateData@CWnd@@QAEHH@Z:PROC			; CWnd::UpdateData
EXTRN	?WinHelpA@CWnd@@UAEXKI@Z:PROC			; CWnd::WinHelpA
EXTRN	?HtmlHelpA@CWnd@@UAEXKI@Z:PROC			; CWnd::HtmlHelpA
EXTRN	?WinHelpInternal@CWnd@@UAEXKI@Z:PROC		; CWnd::WinHelpInternal
EXTRN	?ContinueModal@CWnd@@UAEHXZ:PROC		; CWnd::ContinueModal
EXTRN	?EndModalLoop@CWnd@@UAEXH@Z:PROC		; CWnd::EndModalLoop
EXTRN	?OnDrawIconicThumbnailOrLivePreview@CWnd@@UAEXAAVCDC@@VCRect@@VCSize@@HAAH@Z:PROC ; CWnd::OnDrawIconicThumbnailOrLivePreview
EXTRN	?GetInterfaceMap@CWnd@@MBEPBUAFX_INTERFACEMAP@@XZ:PROC ; CWnd::GetInterfaceMap
EXTRN	?EnsureStdObj@CWnd@@UAEJXZ:PROC			; CWnd::EnsureStdObj
EXTRN	?get_accParent@CWnd@@UAEJPAPAUIDispatch@@@Z:PROC ; CWnd::get_accParent
EXTRN	?get_accChildCount@CWnd@@UAEJPAJ@Z:PROC		; CWnd::get_accChildCount
EXTRN	?get_accChild@CWnd@@UAEJUtagVARIANT@@PAPAUIDispatch@@@Z:PROC ; CWnd::get_accChild
EXTRN	?get_accName@CWnd@@UAEJUtagVARIANT@@PAPA_W@Z:PROC ; CWnd::get_accName
EXTRN	?get_accValue@CWnd@@UAEJUtagVARIANT@@PAPA_W@Z:PROC ; CWnd::get_accValue
EXTRN	?get_accDescription@CWnd@@UAEJUtagVARIANT@@PAPA_W@Z:PROC ; CWnd::get_accDescription
EXTRN	?get_accRole@CWnd@@UAEJUtagVARIANT@@PAU2@@Z:PROC ; CWnd::get_accRole
EXTRN	?get_accState@CWnd@@UAEJUtagVARIANT@@PAU2@@Z:PROC ; CWnd::get_accState
EXTRN	?get_accHelp@CWnd@@UAEJUtagVARIANT@@PAPA_W@Z:PROC ; CWnd::get_accHelp
EXTRN	?get_accHelpTopic@CWnd@@UAEJPAPA_WUtagVARIANT@@PAJ@Z:PROC ; CWnd::get_accHelpTopic
EXTRN	?get_accKeyboardShortcut@CWnd@@UAEJUtagVARIANT@@PAPA_W@Z:PROC ; CWnd::get_accKeyboardShortcut
EXTRN	?get_accFocus@CWnd@@UAEJPAUtagVARIANT@@@Z:PROC	; CWnd::get_accFocus
EXTRN	?get_accSelection@CWnd@@UAEJPAUtagVARIANT@@@Z:PROC ; CWnd::get_accSelection
EXTRN	?get_accDefaultAction@CWnd@@UAEJUtagVARIANT@@PAPA_W@Z:PROC ; CWnd::get_accDefaultAction
EXTRN	?accSelect@CWnd@@UAEJJUtagVARIANT@@@Z:PROC	; CWnd::accSelect
EXTRN	?accLocation@CWnd@@UAEJPAJ000UtagVARIANT@@@Z:PROC ; CWnd::accLocation
EXTRN	?accNavigate@CWnd@@UAEJJUtagVARIANT@@PAU2@@Z:PROC ; CWnd::accNavigate
EXTRN	?accHitTest@CWnd@@UAEJJJPAUtagVARIANT@@@Z:PROC	; CWnd::accHitTest
EXTRN	?accDoDefaultAction@CWnd@@UAEJUtagVARIANT@@@Z:PROC ; CWnd::accDoDefaultAction
EXTRN	?put_accName@CWnd@@UAEJUtagVARIANT@@PA_W@Z:PROC	; CWnd::put_accName
EXTRN	?put_accValue@CWnd@@UAEJUtagVARIANT@@PA_W@Z:PROC ; CWnd::put_accValue
EXTRN	?SetProxy@CWnd@@UAEJPAUIAccessibleProxy@@@Z:PROC ; CWnd::SetProxy
EXTRN	?CreateAccessibleProxy@CWnd@@UAEJIJPAJ@Z:PROC	; CWnd::CreateAccessibleProxy
EXTRN	?OnCommand@CWnd@@MAEHIJ@Z:PROC			; CWnd::OnCommand
EXTRN	?OnNotify@CWnd@@MAEHIJPAJ@Z:PROC		; CWnd::OnNotify
EXTRN	?GetSuperWndProcAddr@CWnd@@MAEPAP6GJPAUHWND__@@IIJ@ZXZ:PROC ; CWnd::GetSuperWndProcAddr
EXTRN	?DoDataExchange@CWnd@@MAEXPAVCDataExchange@@@Z:PROC ; CWnd::DoDataExchange
EXTRN	?BeginModalState@CWnd@@UAEXXZ:PROC		; CWnd::BeginModalState
EXTRN	?EndModalState@CWnd@@UAEXXZ:PROC		; CWnd::EndModalState
EXTRN	?OnAmbientProperty@CWnd@@UAEHPAVCOleControlSite@@JPAUtagVARIANT@@@Z:PROC ; CWnd::OnAmbientProperty
EXTRN	?WindowProc@CWnd@@MAEJIIJ@Z:PROC		; CWnd::WindowProc
EXTRN	?OnWndMsg@CWnd@@MAEHIIJPAJ@Z:PROC		; CWnd::OnWndMsg
EXTRN	?DefWindowProcA@CWnd@@MAEJIIJ@Z:PROC		; CWnd::DefWindowProcA
EXTRN	?PostNcDestroy@CWnd@@MAEXXZ:PROC		; CWnd::PostNcDestroy
EXTRN	?OnChildNotify@CWnd@@MAEHIIJPAJ@Z:PROC		; CWnd::OnChildNotify
EXTRN	?OnTouchInputs@CWnd@@MAEHIPAUtagTOUCHINPUT@@@Z:PROC ; CWnd::OnTouchInputs
EXTRN	?OnTouchInput@CWnd@@MAEHVCPoint@@HHPAUtagTOUCHINPUT@@@Z:PROC ; CWnd::OnTouchInput
EXTRN	?GetGestureStatus@CWnd@@MAEKVCPoint@@@Z:PROC	; CWnd::GetGestureStatus
EXTRN	?OnGestureZoom@CWnd@@MAEHVCPoint@@J@Z:PROC	; CWnd::OnGestureZoom
EXTRN	?OnGesturePan@CWnd@@MAEHVCPoint@@0@Z:PROC	; CWnd::OnGesturePan
EXTRN	?OnGestureRotate@CWnd@@MAEHVCPoint@@N@Z:PROC	; CWnd::OnGestureRotate
EXTRN	?OnGestureTwoFingerTap@CWnd@@MAEHVCPoint@@@Z:PROC ; CWnd::OnGestureTwoFingerTap
EXTRN	?OnGesturePressAndTap@CWnd@@MAEHVCPoint@@J@Z:PROC ; CWnd::OnGesturePressAndTap
EXTRN	?ResizeDynamicLayout@CWnd@@MAEXXZ:PROC		; CWnd::ResizeDynamicLayout
EXTRN	?IsFrameWnd@CWnd@@UBEHXZ:PROC			; CWnd::IsFrameWnd
EXTRN	?OnFinalRelease@CWnd@@UAEXXZ:PROC		; CWnd::OnFinalRelease
EXTRN	?CreateControlContainer@CWnd@@MAEHPAPAVCOleControlContainer@@@Z:PROC ; CWnd::CreateControlContainer
EXTRN	?CreateControlSite@CWnd@@MAEHPAVCOleControlContainer@@PAPAVCOleControlSite@@IABU_GUID@@@Z:PROC ; CWnd::CreateControlSite
EXTRN	?GetRuntimeClass@CDialog@@UBEPAUCRuntimeClass@@XZ:PROC ; CDialog::GetRuntimeClass
EXTRN	?Create@CDialog@@UAEHPBDPAVCWnd@@@Z:PROC	; CDialog::Create
EXTRN	?Create@CDialog@@UAEHIPAVCWnd@@@Z:PROC		; CDialog::Create
EXTRN	?CreateIndirect@CDialog@@UAEHPBUDLGTEMPLATE@@PAVCWnd@@PAX@Z:PROC ; CDialog::CreateIndirect
EXTRN	?CreateIndirect@CDialog@@UAEHPAXPAVCWnd@@@Z:PROC ; CDialog::CreateIndirect
EXTRN	??0CDialog@@QAE@IPAVCWnd@@@Z:PROC		; CDialog::CDialog
EXTRN	?DoModal@CDialog@@UAEHXZ:PROC			; CDialog::DoModal
EXTRN	?OnInitDialog@CDialog@@UAEHXZ:PROC		; CDialog::OnInitDialog
EXTRN	?OnSetFont@CDialog@@UAEXPAVCFont@@@Z:PROC	; CDialog::OnSetFont
EXTRN	?OnOK@CDialog@@MAEXXZ:PROC			; CDialog::OnOK
EXTRN	?OnCancel@CDialog@@MAEXXZ:PROC			; CDialog::OnCancel
EXTRN	??1CDialog@@UAE@XZ:PROC				; CDialog::~CDialog
EXTRN	?AssertValid@CDialog@@UBEXXZ:PROC		; CDialog::AssertValid
EXTRN	?Dump@CDialog@@UBEXAAVCDumpContext@@@Z:PROC	; CDialog::Dump
EXTRN	?PreTranslateMessage@CDialog@@UAEHPAUtagMSG@@@Z:PROC ; CDialog::PreTranslateMessage
EXTRN	?OnCmdMsg@CDialog@@UAEHIHPAXPAUAFX_CMDHANDLERINFO@@@Z:PROC ; CDialog::OnCmdMsg
EXTRN	?CheckAutoCenter@CDialog@@UAEHXZ:PROC		; CDialog::CheckAutoCenter
EXTRN	?SetOccDialogInfo@CDialog@@MAEHPAU_AFX_OCC_DIALOG_INFO@@@Z:PROC ; CDialog::SetOccDialogInfo
EXTRN	?GetOccDialogInfo@CDialog@@MAEPAU_AFX_OCC_DIALOG_INFO@@XZ:PROC ; CDialog::GetOccDialogInfo
EXTRN	?PreInitDialog@CDialog@@MAEXXZ:PROC		; CDialog::PreInitDialog
EXTRN	?GetThisMessageMap@CDialog@@KGPBUAFX_MSGMAP@@XZ:PROC ; CDialog::GetThisMessageMap
EXTRN	??0CFileDialog@@QAE@HPBD0K0PAVCWnd@@KH@Z:PROC	; CFileDialog::CFileDialog
EXTRN	??1CFileDialog@@UAE@XZ:PROC			; CFileDialog::~CFileDialog
EXTRN	?DoModal@CFileDialog@@UAEHXZ:PROC		; CFileDialog::DoModal
EXTRN	?GetPathName@CFileDialog@@QBE?AV?$CStringT@DV?$StrTraitMFC_DLL@DV?$ChTraitsCRT@D@ATL@@@@@ATL@@XZ:PROC ; CFileDialog::GetPathName
EXTRN	?HorizontalLineType@CNewBoxesDoc@@QBE?AW4LINE_TYPE@@HH@Z:PROC ; CNewBoxesDoc::HorizontalLineType
EXTRN	?VerticalLineType@CNewBoxesDoc@@QBE?AW4LINE_TYPE@@HH@Z:PROC ; CNewBoxesDoc::VerticalLineType
EXTRN	?BoxOwner@CNewBoxesDoc@@QBE?AW4OWNER_TYPE@@ABUtagPOINT@@@Z:PROC ; CNewBoxesDoc::BoxOwner
EXTRN	?BoxOwner@CNewBoxesDoc@@QAEXABUtagPOINT@@W4OWNER_TYPE@@@Z:PROC ; CNewBoxesDoc::BoxOwner
EXTRN	?AI_Option@CNewBoxesDoc@@QAEXW4MOVE_TYPE@@H@Z:PROC ; CNewBoxesDoc::AI_Option
EXTRN	?AI_Option@CNewBoxesDoc@@QBE_NW4MOVE_TYPE@@@Z:PROC ; CNewBoxesDoc::AI_Option
EXTRN	??_ETestCreation@@UAEPAXI@Z:PROC		; TestCreation::`vector deleting destructor'
EXTRN	@_RTC_CheckStackVars@8:PROC
EXTRN	@__security_check_cookie@4:PROC
EXTRN	__RTC_CheckEsp:PROC
EXTRN	__RTC_InitBase:PROC
EXTRN	__RTC_Shutdown:PROC
EXTRN	___CxxFrameHandler3:PROC
EXTRN	??_7type_info@@6B@:QWORD			; type_info::`vftable'
EXTRN	?pDoc@@3PAVCNewBoxesDoc@@A:DWORD		; pDoc
EXTRN	___security_cookie:DWORD
;	COMDAT rtc$TMZ
rtc$TMZ	SEGMENT
__RTC_Shutdown.rtc$TMZ DD FLAT:__RTC_Shutdown
rtc$TMZ	ENDS
;	COMDAT rtc$IMZ
rtc$IMZ	SEGMENT
__RTC_InitBase.rtc$IMZ DD FLAT:__RTC_InitBase
rtc$IMZ	ENDS
;	COMDAT ??_R1A@?0A@EA@TestCreation@@8
rdata$r	SEGMENT
??_R1A@?0A@EA@TestCreation@@8 DD FLAT:??_R0?AVTestCreation@@@8 ; TestCreation::`RTTI Base Class Descriptor at (0,-1,0,64)'
	DD	04H
	DD	00H
	DD	0ffffffffH
	DD	00H
	DD	040H
	DD	FLAT:??_R3TestCreation@@8
rdata$r	ENDS
;	COMDAT ??_R2TestCreation@@8
rdata$r	SEGMENT
??_R2TestCreation@@8 DD FLAT:??_R1A@?0A@EA@TestCreation@@8 ; TestCreation::`RTTI Base Class Array'
	DD	FLAT:??_R1A@?0A@EA@CDialog@@8
	DD	FLAT:??_R1A@?0A@EA@CWnd@@8
	DD	FLAT:??_R1A@?0A@EA@CCmdTarget@@8
	DD	FLAT:??_R1A@?0A@EA@CObject@@8
rdata$r	ENDS
;	COMDAT ??_R3TestCreation@@8
rdata$r	SEGMENT
??_R3TestCreation@@8 DD 00H				; TestCreation::`RTTI Class Hierarchy Descriptor'
	DD	00H
	DD	05H
	DD	FLAT:??_R2TestCreation@@8
rdata$r	ENDS
;	COMDAT ??_R0?AVTestCreation@@@8
data$rs	SEGMENT
??_R0?AVTestCreation@@@8 DD FLAT:??_7type_info@@6B@	; TestCreation `RTTI Type Descriptor'
	DD	00H
	DB	'.?AVTestCreation@@', 00H
data$rs	ENDS
;	COMDAT ??_R4TestCreation@@6B@
rdata$r	SEGMENT
??_R4TestCreation@@6B@ DD 00H				; TestCreation::`RTTI Complete Object Locator'
	DD	00H
	DD	00H
	DD	FLAT:??_R0?AVTestCreation@@@8
	DD	FLAT:??_R3TestCreation@@8
rdata$r	ENDS
;	COMDAT ?messageMap@?1??GetThisMessageMap@TestCreation@@KGPBUAFX_MSGMAP@@XZ@4U3@B
CONST	SEGMENT
?messageMap@?1??GetThisMessageMap@TestCreation@@KGPBUAFX_MSGMAP@@XZ@4U3@B DD FLAT:?GetThisMessageMap@CDialog@@KGPBUAFX_MSGMAP@@XZ ; `TestCreation::GetThisMessageMap'::`2'::messageMap
	DD	FLAT:?_messageEntries@?1??GetThisMessageMap@TestCreation@@KGPBUAFX_MSGMAP@@XZ@4QBUAFX_MSGMAP_ENTRY@@B
CONST	ENDS
;	COMDAT ?_messageEntries@?1??GetThisMessageMap@TestCreation@@KGPBUAFX_MSGMAP@@XZ@4QBUAFX_MSGMAP_ENTRY@@B
CONST	SEGMENT
?_messageEntries@?1??GetThisMessageMap@TestCreation@@KGPBUAFX_MSGMAP@@XZ@4QBUAFX_MSGMAP_ENTRY@@B DD 00H ; `TestCreation::GetThisMessageMap'::`2'::_messageEntries
	DD	00H
	DD	00H
	DD	00H
	DD	00H
	DD	00H
CONST	ENDS
;	COMDAT ??_7TestCreation@@6B@
CONST	SEGMENT
??_7TestCreation@@6B@ DD FLAT:??_R4TestCreation@@6B@	; TestCreation::`vftable'
	DD	FLAT:?GetRuntimeClass@CDialog@@UBEPAUCRuntimeClass@@XZ
	DD	FLAT:??_ETestCreation@@UAEPAXI@Z
	DD	FLAT:?Serialize@CObject@@UAEXAAVCArchive@@@Z
	DD	FLAT:?AssertValid@CDialog@@UBEXXZ
	DD	FLAT:?Dump@CDialog@@UBEXAAVCDumpContext@@@Z
	DD	FLAT:?OnCmdMsg@CDialog@@UAEHIHPAXPAUAFX_CMDHANDLERINFO@@@Z
	DD	FLAT:?OnFinalRelease@CWnd@@UAEXXZ
	DD	FLAT:?IsInvokeAllowed@CCmdTarget@@UAEHJ@Z
	DD	FLAT:?GetDispatchIID@CCmdTarget@@UAEHPAU_GUID@@@Z
	DD	FLAT:?GetTypeInfoCount@CCmdTarget@@UAEIXZ
	DD	FLAT:?GetTypeLibCache@CCmdTarget@@UAEPAVCTypeLibCache@@XZ
	DD	FLAT:?GetTypeLib@CCmdTarget@@UAEJKPAPAUITypeLib@@@Z
	DD	FLAT:?GetMessageMap@TestCreation@@MBEPBUAFX_MSGMAP@@XZ
	DD	FLAT:?GetCommandMap@CCmdTarget@@MBEPBUAFX_OLECMDMAP@@XZ
	DD	FLAT:?GetDispatchMap@CCmdTarget@@MBEPBUAFX_DISPMAP@@XZ
	DD	FLAT:?GetConnectionMap@CCmdTarget@@MBEPBUAFX_CONNECTIONMAP@@XZ
	DD	FLAT:?GetInterfaceMap@CWnd@@MBEPBUAFX_INTERFACEMAP@@XZ
	DD	FLAT:?GetEventSinkMap@CCmdTarget@@MBEPBUAFX_EVENTSINKMAP@@XZ
	DD	FLAT:?OnCreateAggregates@CCmdTarget@@UAEHXZ
	DD	FLAT:?GetInterfaceHook@CCmdTarget@@UAEPAUIUnknown@@PBX@Z
	DD	FLAT:?GetExtraConnectionPoints@CCmdTarget@@MAEHPAVCPtrArray@@@Z
	DD	FLAT:?GetConnectionHook@CCmdTarget@@MAEPAUIConnectionPoint@@ABU_GUID@@@Z
	DD	FLAT:?PreSubclassWindow@CWnd@@UAEXXZ
	DD	FLAT:?Create@CWnd@@UAEHPBD0KABUtagRECT@@PAV1@IPAUCCreateContext@@@Z
	DD	FLAT:?CreateEx@CWnd@@UAEHKPBD0KABUtagRECT@@PAV1@IPAX@Z
	DD	FLAT:?CreateEx@CWnd@@UAEHKPBD0KHHHHPAUHWND__@@PAUHMENU__@@PAX@Z
	DD	FLAT:?DestroyWindow@CWnd@@UAEHXZ
	DD	FLAT:?PreCreateWindow@CWnd@@UAEHAAUtagCREATESTRUCTA@@@Z
	DD	FLAT:?CalcWindowRect@CWnd@@UAEXPAUtagRECT@@I@Z
	DD	FLAT:?GetMenu@CWnd@@UBEPAVCMenu@@XZ
	DD	FLAT:?SetMenu@CWnd@@UAEHPAVCMenu@@@Z
	DD	FLAT:?OnToolHitTest@CWnd@@UBEHVCPoint@@PAUtagTOOLINFOA@@@Z
	DD	FLAT:?GetScrollBarCtrl@CWnd@@UBEPAVCScrollBar@@H@Z
	DD	FLAT:?WinHelpA@CWnd@@UAEXKI@Z
	DD	FLAT:?HtmlHelpA@CWnd@@UAEXKI@Z
	DD	FLAT:?WinHelpInternal@CWnd@@UAEXKI@Z
	DD	FLAT:?ContinueModal@CWnd@@UAEHXZ
	DD	FLAT:?EndModalLoop@CWnd@@UAEXH@Z
	DD	FLAT:?OnDrawIconicThumbnailOrLivePreview@CWnd@@UAEXAAVCDC@@VCRect@@VCSize@@HAAH@Z
	DD	FLAT:?EnsureStdObj@CWnd@@UAEJXZ
	DD	FLAT:?get_accParent@CWnd@@UAEJPAPAUIDispatch@@@Z
	DD	FLAT:?get_accChildCount@CWnd@@UAEJPAJ@Z
	DD	FLAT:?get_accChild@CWnd@@UAEJUtagVARIANT@@PAPAUIDispatch@@@Z
	DD	FLAT:?get_accName@CWnd@@UAEJUtagVARIANT@@PAPA_W@Z
	DD	FLAT:?get_accValue@CWnd@@UAEJUtagVARIANT@@PAPA_W@Z
	DD	FLAT:?get_accDescription@CWnd@@UAEJUtagVARIANT@@PAPA_W@Z
	DD	FLAT:?get_accRole@CWnd@@UAEJUtagVARIANT@@PAU2@@Z
	DD	FLAT:?get_accState@CWnd@@UAEJUtagVARIANT@@PAU2@@Z
	DD	FLAT:?get_accHelp@CWnd@@UAEJUtagVARIANT@@PAPA_W@Z
	DD	FLAT:?get_accHelpTopic@CWnd@@UAEJPAPA_WUtagVARIANT@@PAJ@Z
	DD	FLAT:?get_accKeyboardShortcut@CWnd@@UAEJUtagVARIANT@@PAPA_W@Z
	DD	FLAT:?get_accFocus@CWnd@@UAEJPAUtagVARIANT@@@Z
	DD	FLAT:?get_accSelection@CWnd@@UAEJPAUtagVARIANT@@@Z
	DD	FLAT:?get_accDefaultAction@CWnd@@UAEJUtagVARIANT@@PAPA_W@Z
	DD	FLAT:?accSelect@CWnd@@UAEJJUtagVARIANT@@@Z
	DD	FLAT:?accLocation@CWnd@@UAEJPAJ000UtagVARIANT@@@Z
	DD	FLAT:?accNavigate@CWnd@@UAEJJUtagVARIANT@@PAU2@@Z
	DD	FLAT:?accHitTest@CWnd@@UAEJJJPAUtagVARIANT@@@Z
	DD	FLAT:?accDoDefaultAction@CWnd@@UAEJUtagVARIANT@@@Z
	DD	FLAT:?put_accName@CWnd@@UAEJUtagVARIANT@@PA_W@Z
	DD	FLAT:?put_accValue@CWnd@@UAEJUtagVARIANT@@PA_W@Z
	DD	FLAT:?SetProxy@CWnd@@UAEJPAUIAccessibleProxy@@@Z
	DD	FLAT:?CreateAccessibleProxy@CWnd@@UAEJIJPAJ@Z
	DD	FLAT:?OnCommand@CWnd@@MAEHIJ@Z
	DD	FLAT:?OnNotify@CWnd@@MAEHIJPAJ@Z
	DD	FLAT:?GetSuperWndProcAddr@CWnd@@MAEPAP6GJPAUHWND__@@IIJ@ZXZ
	DD	FLAT:?DoDataExchange@TestCreation@@MAEXPAVCDataExchange@@@Z
	DD	FLAT:?BeginModalState@CWnd@@UAEXXZ
	DD	FLAT:?EndModalState@CWnd@@UAEXXZ
	DD	FLAT:?PreTranslateMessage@CDialog@@UAEHPAUtagMSG@@@Z
	DD	FLAT:?OnAmbientProperty@CWnd@@UAEHPAVCOleControlSite@@JPAUtagVARIANT@@@Z
	DD	FLAT:?WindowProc@CWnd@@MAEJIIJ@Z
	DD	FLAT:?OnWndMsg@CWnd@@MAEHIIJPAJ@Z
	DD	FLAT:?DefWindowProcA@CWnd@@MAEJIIJ@Z
	DD	FLAT:?PostNcDestroy@CWnd@@MAEXXZ
	DD	FLAT:?OnChildNotify@CWnd@@MAEHIIJPAJ@Z
	DD	FLAT:?OnTouchInputs@CWnd@@MAEHIPAUtagTOUCHINPUT@@@Z
	DD	FLAT:?OnTouchInput@CWnd@@MAEHVCPoint@@HHPAUtagTOUCHINPUT@@@Z
	DD	FLAT:?GetGestureStatus@CWnd@@MAEKVCPoint@@@Z
	DD	FLAT:?OnGestureZoom@CWnd@@MAEHVCPoint@@J@Z
	DD	FLAT:?OnGesturePan@CWnd@@MAEHVCPoint@@0@Z
	DD	FLAT:?OnGestureRotate@CWnd@@MAEHVCPoint@@N@Z
	DD	FLAT:?OnGestureTwoFingerTap@CWnd@@MAEHVCPoint@@@Z
	DD	FLAT:?OnGesturePressAndTap@CWnd@@MAEHVCPoint@@J@Z
	DD	FLAT:?ResizeDynamicLayout@CWnd@@MAEXXZ
	DD	FLAT:?CheckAutoCenter@CDialog@@UAEHXZ
	DD	FLAT:?IsFrameWnd@CWnd@@UBEHXZ
	DD	FLAT:?CreateControlContainer@CWnd@@MAEHPAPAVCOleControlContainer@@@Z
	DD	FLAT:?CreateControlSite@CWnd@@MAEHPAVCOleControlContainer@@PAPAVCOleControlSite@@IABU_GUID@@@Z
	DD	FLAT:?SetOccDialogInfo@CDialog@@MAEHPAU_AFX_OCC_DIALOG_INFO@@@Z
	DD	FLAT:?GetOccDialogInfo@CDialog@@MAEPAU_AFX_OCC_DIALOG_INFO@@XZ
	DD	FLAT:?Create@CDialog@@UAEHIPAVCWnd@@@Z
	DD	FLAT:?Create@CDialog@@UAEHPBDPAVCWnd@@@Z
	DD	FLAT:?CreateIndirect@CDialog@@UAEHPAXPAVCWnd@@@Z
	DD	FLAT:?CreateIndirect@CDialog@@UAEHPBUDLGTEMPLATE@@PAVCWnd@@PAX@Z
	DD	FLAT:?DoModal@CDialog@@UAEHXZ
	DD	FLAT:?OnInitDialog@TestCreation@@MAEHXZ
	DD	FLAT:?OnSetFont@CDialog@@UAEXPAVCFont@@@Z
	DD	FLAT:?OnOK@TestCreation@@MAEXXZ
	DD	FLAT:?OnCancel@CDialog@@MAEXXZ
	DD	FLAT:?PreInitDialog@CDialog@@MAEXXZ
CONST	ENDS
;	COMDAT ??_R2CCmdTarget@@8
rdata$r	SEGMENT
??_R2CCmdTarget@@8 DD FLAT:??_R1A@?0A@EA@CCmdTarget@@8	; CCmdTarget::`RTTI Base Class Array'
	DD	FLAT:??_R1A@?0A@EA@CObject@@8
rdata$r	ENDS
;	COMDAT ??_R3CCmdTarget@@8
rdata$r	SEGMENT
??_R3CCmdTarget@@8 DD 00H				; CCmdTarget::`RTTI Class Hierarchy Descriptor'
	DD	00H
	DD	02H
	DD	FLAT:??_R2CCmdTarget@@8
rdata$r	ENDS
;	COMDAT ??_R0?AVCCmdTarget@@@8
data$rs	SEGMENT
??_R0?AVCCmdTarget@@@8 DD FLAT:??_7type_info@@6B@	; CCmdTarget `RTTI Type Descriptor'
	DD	00H
	DB	'.?AVCCmdTarget@@', 00H
data$rs	ENDS
;	COMDAT ??_R1A@?0A@EA@CCmdTarget@@8
rdata$r	SEGMENT
??_R1A@?0A@EA@CCmdTarget@@8 DD FLAT:??_R0?AVCCmdTarget@@@8 ; CCmdTarget::`RTTI Base Class Descriptor at (0,-1,0,64)'
	DD	01H
	DD	00H
	DD	0ffffffffH
	DD	00H
	DD	040H
	DD	FLAT:??_R3CCmdTarget@@8
rdata$r	ENDS
;	COMDAT ??_R2CWnd@@8
rdata$r	SEGMENT
??_R2CWnd@@8 DD	FLAT:??_R1A@?0A@EA@CWnd@@8		; CWnd::`RTTI Base Class Array'
	DD	FLAT:??_R1A@?0A@EA@CCmdTarget@@8
	DD	FLAT:??_R1A@?0A@EA@CObject@@8
rdata$r	ENDS
;	COMDAT ??_R3CWnd@@8
rdata$r	SEGMENT
??_R3CWnd@@8 DD	00H					; CWnd::`RTTI Class Hierarchy Descriptor'
	DD	00H
	DD	03H
	DD	FLAT:??_R2CWnd@@8
rdata$r	ENDS
;	COMDAT ??_R0?AVCWnd@@@8
data$rs	SEGMENT
??_R0?AVCWnd@@@8 DD FLAT:??_7type_info@@6B@		; CWnd `RTTI Type Descriptor'
	DD	00H
	DB	'.?AVCWnd@@', 00H
data$rs	ENDS
;	COMDAT ??_R1A@?0A@EA@CWnd@@8
rdata$r	SEGMENT
??_R1A@?0A@EA@CWnd@@8 DD FLAT:??_R0?AVCWnd@@@8		; CWnd::`RTTI Base Class Descriptor at (0,-1,0,64)'
	DD	02H
	DD	00H
	DD	0ffffffffH
	DD	00H
	DD	040H
	DD	FLAT:??_R3CWnd@@8
rdata$r	ENDS
;	COMDAT ??_R2CDialog@@8
rdata$r	SEGMENT
??_R2CDialog@@8 DD FLAT:??_R1A@?0A@EA@CDialog@@8	; CDialog::`RTTI Base Class Array'
	DD	FLAT:??_R1A@?0A@EA@CWnd@@8
	DD	FLAT:??_R1A@?0A@EA@CCmdTarget@@8
	DD	FLAT:??_R1A@?0A@EA@CObject@@8
rdata$r	ENDS
;	COMDAT ??_R3CDialog@@8
rdata$r	SEGMENT
??_R3CDialog@@8 DD 00H					; CDialog::`RTTI Class Hierarchy Descriptor'
	DD	00H
	DD	04H
	DD	FLAT:??_R2CDialog@@8
rdata$r	ENDS
;	COMDAT ??_R0?AVCDialog@@@8
data$rs	SEGMENT
??_R0?AVCDialog@@@8 DD FLAT:??_7type_info@@6B@		; CDialog `RTTI Type Descriptor'
	DD	00H
	DB	'.?AVCDialog@@', 00H
data$rs	ENDS
;	COMDAT ??_R1A@?0A@EA@CDialog@@8
rdata$r	SEGMENT
??_R1A@?0A@EA@CDialog@@8 DD FLAT:??_R0?AVCDialog@@@8	; CDialog::`RTTI Base Class Descriptor at (0,-1,0,64)'
	DD	03H
	DD	00H
	DD	0ffffffffH
	DD	00H
	DD	040H
	DD	FLAT:??_R3CDialog@@8
rdata$r	ENDS
;	COMDAT ??_R2CObject@@8
rdata$r	SEGMENT
??_R2CObject@@8 DD FLAT:??_R1A@?0A@EA@CObject@@8	; CObject::`RTTI Base Class Array'
rdata$r	ENDS
;	COMDAT ??_R3CObject@@8
rdata$r	SEGMENT
??_R3CObject@@8 DD 00H					; CObject::`RTTI Class Hierarchy Descriptor'
	DD	00H
	DD	01H
	DD	FLAT:??_R2CObject@@8
rdata$r	ENDS
;	COMDAT ??_R0?AVCObject@@@8
data$rs	SEGMENT
??_R0?AVCObject@@@8 DD FLAT:??_7type_info@@6B@		; CObject `RTTI Type Descriptor'
	DD	00H
	DB	'.?AVCObject@@', 00H
data$rs	ENDS
;	COMDAT ??_R1A@?0A@EA@CObject@@8
rdata$r	SEGMENT
??_R1A@?0A@EA@CObject@@8 DD FLAT:??_R0?AVCObject@@@8	; CObject::`RTTI Base Class Descriptor at (0,-1,0,64)'
	DD	00H
	DD	00H
	DD	0ffffffffH
	DD	00H
	DD	040H
	DD	FLAT:??_R3CObject@@8
rdata$r	ENDS
voltbl	SEGMENT
_volmd	DD	0ffffffffH
	DDSymXIndex: 	FLAT:__unwindfunclet$?OnOK@TestCreation@@MAEXXZ$0
	DD	044H
	DD	051H
_volmd	DD	0ffffffffH
	DDSymXIndex: 	FLAT:?OnOK@TestCreation@@MAEXXZ
	DD	034H
	DD	01f6H
voltbl	ENDS
xdata$x	SEGMENT
__ehfuncinfo$?OnOK@TestCreation@@MAEXXZ DD 019930522H
	DD	05H
	DD	FLAT:__unwindtable$?OnOK@TestCreation@@MAEXXZ
	DD	2 DUP(00H)
	DD	2 DUP(00H)
	DD	00H
	DD	01H
__unwindtable$?OnOK@TestCreation@@MAEXXZ DD 0ffffffffH
	DD	FLAT:__unwindfunclet$?OnOK@TestCreation@@MAEXXZ$0
	DD	00H
	DD	FLAT:__unwindfunclet$?OnOK@TestCreation@@MAEXXZ$1
	DD	01H
	DD	FLAT:__unwindfunclet$?OnOK@TestCreation@@MAEXXZ$2
	DD	00H
	DD	FLAT:__unwindfunclet$?OnOK@TestCreation@@MAEXXZ$2
	DD	03H
	DD	FLAT:__unwindfunclet$?OnOK@TestCreation@@MAEXXZ$3
xdata$x	ENDS
; Function compile flags: /Odtp /RTCsu
;	COMDAT ??_GTestCreation@@UAEPAXI@Z
_TEXT	SEGMENT
_this$ = -4						; size = 4
___flags$ = 8						; size = 4
??_GTestCreation@@UAEPAXI@Z PROC			; TestCreation::`scalar deleting destructor', COMDAT
; _this$ = ecx
  00000	55		 push	 ebp
  00001	8b ec		 mov	 ebp, esp
  00003	51		 push	 ecx
  00004	c7 45 fc cc cc
	cc cc		 mov	 DWORD PTR [ebp-4], -858993460 ; ccccccccH
  0000b	89 4d fc	 mov	 DWORD PTR _this$[ebp], ecx
  0000e	8b 4d fc	 mov	 ecx, DWORD PTR _this$[ebp]
  00011	e8 00 00 00 00	 call	 ??1TestCreation@@UAE@XZ
  00016	8b 45 08	 mov	 eax, DWORD PTR ___flags$[ebp]
  00019	83 e0 01	 and	 eax, 1
  0001c	74 24		 je	 SHORT $LN2@scalar
  0001e	8b 4d 08	 mov	 ecx, DWORD PTR ___flags$[ebp]
  00021	83 e1 04	 and	 ecx, 4
  00024	75 0b		 jne	 SHORT $LN3@scalar
  00026	8b 55 fc	 mov	 edx, DWORD PTR _this$[ebp]
  00029	52		 push	 edx
  0002a	e8 00 00 00 00	 call	 ??3CObject@@SGXPAX@Z	; CObject::operator delete
  0002f	eb 11		 jmp	 SHORT $LN2@scalar
$LN3@scalar:
  00031	68 c8 00 00 00	 push	 200			; 000000c8H
  00036	8b 45 fc	 mov	 eax, DWORD PTR _this$[ebp]
  00039	50		 push	 eax
  0003a	e8 00 00 00 00	 call	 ?__global_delete@@YAXPAXI@Z ; __global_delete
  0003f	83 c4 08	 add	 esp, 8
$LN2@scalar:
  00042	8b 45 fc	 mov	 eax, DWORD PTR _this$[ebp]
  00045	83 c4 04	 add	 esp, 4
  00048	3b ec		 cmp	 ebp, esp
  0004a	e8 00 00 00 00	 call	 __RTC_CheckEsp
  0004f	8b e5		 mov	 esp, ebp
  00051	5d		 pop	 ebp
  00052	c2 04 00	 ret	 4
??_GTestCreation@@UAEPAXI@Z ENDP			; TestCreation::`scalar deleting destructor'
_TEXT	ENDS
; Function compile flags: /Odtp /RTCsu
;	COMDAT ??1TestCreation@@UAE@XZ
_TEXT	SEGMENT
_this$ = -4						; size = 4
??1TestCreation@@UAE@XZ PROC				; TestCreation::~TestCreation, COMDAT
; _this$ = ecx
  00000	55		 push	 ebp
  00001	8b ec		 mov	 ebp, esp
  00003	51		 push	 ecx
  00004	c7 45 fc cc cc
	cc cc		 mov	 DWORD PTR [ebp-4], -858993460 ; ccccccccH
  0000b	89 4d fc	 mov	 DWORD PTR _this$[ebp], ecx
  0000e	8b 4d fc	 mov	 ecx, DWORD PTR _this$[ebp]
  00011	e8 00 00 00 00	 call	 ??1CDialog@@UAE@XZ	; CDialog::~CDialog
  00016	83 c4 04	 add	 esp, 4
  00019	3b ec		 cmp	 ebp, esp
  0001b	e8 00 00 00 00	 call	 __RTC_CheckEsp
  00020	8b e5		 mov	 esp, ebp
  00022	5d		 pop	 ebp
  00023	c3		 ret	 0
??1TestCreation@@UAE@XZ ENDP				; TestCreation::~TestCreation
_TEXT	ENDS
; Function compile flags: /Odtp /RTCsu
; File C:\Users\15485\Desktop\工程之星点格棋\工程之星点格棋\TestCreation.cpp
_TEXT	SEGMENT
$T1 = -48						; size = 8
$T2 = -40						; size = 8
_p$ = -28						; size = 8
_boxNum$ = -16						; size = 4
_col$ = -12						; size = 4
_row$ = -8						; size = 4
_this$ = -4						; size = 4
_ro$ = 8						; size = 4
?ReplaceOwners@TestCreation@@IAEXPAW4OWNER_TYPE@@@Z PROC ; TestCreation::ReplaceOwners
; _this$ = ecx

; 102  : {

  00000	55		 push	 ebp
  00001	8b ec		 mov	 ebp, esp
  00003	83 ec 30	 sub	 esp, 48			; 00000030H
  00006	57		 push	 edi
  00007	51		 push	 ecx
  00008	8d 7d d0	 lea	 edi, DWORD PTR [ebp-48]
  0000b	b9 0c 00 00 00	 mov	 ecx, 12			; 0000000cH
  00010	b8 cc cc cc cc	 mov	 eax, -858993460		; ccccccccH
  00015	f3 ab		 rep stosd
  00017	59		 pop	 ecx
  00018	89 4d fc	 mov	 DWORD PTR _this$[ebp], ecx

; 103  :   int row, col, boxNum;
; 104  :   POINT p;
; 105  :   boxNum = 0;

  0001b	c7 45 f0 00 00
	00 00		 mov	 DWORD PTR _boxNum$[ebp], 0

; 106  :   for (row=0; row<pDoc->GameSize().y-1; row++)

  00022	c7 45 f8 00 00
	00 00		 mov	 DWORD PTR _row$[ebp], 0
  00029	eb 09		 jmp	 SHORT $LN4@ReplaceOwn
$LN2@ReplaceOwn:
  0002b	8b 45 f8	 mov	 eax, DWORD PTR _row$[ebp]
  0002e	83 c0 01	 add	 eax, 1
  00031	89 45 f8	 mov	 DWORD PTR _row$[ebp], eax
$LN4@ReplaceOwn:
  00034	8d 4d d8	 lea	 ecx, DWORD PTR $T2[ebp]
  00037	51		 push	 ecx
  00038	8b 0d 00 00 00
	00		 mov	 ecx, DWORD PTR ?pDoc@@3PAVCNewBoxesDoc@@A ; pDoc
  0003e	e8 00 00 00 00	 call	 ?GameSize@CNewBoxesDoc@@QAE?AUtagPOINT@@XZ ; CNewBoxesDoc::GameSize
  00043	8b 50 04	 mov	 edx, DWORD PTR [eax+4]
  00046	83 ea 01	 sub	 edx, 1
  00049	39 55 f8	 cmp	 DWORD PTR _row$[ebp], edx
  0004c	7d 5d		 jge	 SHORT $LN1@ReplaceOwn

; 107  :   {
; 108  :     p.y = row;

  0004e	8b 45 f8	 mov	 eax, DWORD PTR _row$[ebp]
  00051	89 45 e8	 mov	 DWORD PTR _p$[ebp+4], eax

; 109  :     for (col=0; col<pDoc->GameSize().x-1; col++,boxNum++)

  00054	c7 45 f4 00 00
	00 00		 mov	 DWORD PTR _col$[ebp], 0
  0005b	eb 12		 jmp	 SHORT $LN7@ReplaceOwn
$LN5@ReplaceOwn:
  0005d	8b 4d f4	 mov	 ecx, DWORD PTR _col$[ebp]
  00060	83 c1 01	 add	 ecx, 1
  00063	89 4d f4	 mov	 DWORD PTR _col$[ebp], ecx
  00066	8b 55 f0	 mov	 edx, DWORD PTR _boxNum$[ebp]
  00069	83 c2 01	 add	 edx, 1
  0006c	89 55 f0	 mov	 DWORD PTR _boxNum$[ebp], edx
$LN7@ReplaceOwn:
  0006f	8d 45 d0	 lea	 eax, DWORD PTR $T1[ebp]
  00072	50		 push	 eax
  00073	8b 0d 00 00 00
	00		 mov	 ecx, DWORD PTR ?pDoc@@3PAVCNewBoxesDoc@@A ; pDoc
  00079	e8 00 00 00 00	 call	 ?GameSize@CNewBoxesDoc@@QAE?AUtagPOINT@@XZ ; CNewBoxesDoc::GameSize
  0007e	8b 08		 mov	 ecx, DWORD PTR [eax]
  00080	83 e9 01	 sub	 ecx, 1
  00083	39 4d f4	 cmp	 DWORD PTR _col$[ebp], ecx
  00086	7d 21		 jge	 SHORT $LN6@ReplaceOwn

; 110  :     {
; 111  :       p.x = col;

  00088	8b 55 f4	 mov	 edx, DWORD PTR _col$[ebp]
  0008b	89 55 e4	 mov	 DWORD PTR _p$[ebp], edx

; 112  :       pDoc->BoxOwner(p, ro[boxNum]);

  0008e	8b 45 f0	 mov	 eax, DWORD PTR _boxNum$[ebp]
  00091	8b 4d 08	 mov	 ecx, DWORD PTR _ro$[ebp]
  00094	8b 14 81	 mov	 edx, DWORD PTR [ecx+eax*4]
  00097	52		 push	 edx
  00098	8d 45 e4	 lea	 eax, DWORD PTR _p$[ebp]
  0009b	50		 push	 eax
  0009c	8b 0d 00 00 00
	00		 mov	 ecx, DWORD PTR ?pDoc@@3PAVCNewBoxesDoc@@A ; pDoc
  000a2	e8 00 00 00 00	 call	 ?BoxOwner@CNewBoxesDoc@@QAEXABUtagPOINT@@W4OWNER_TYPE@@@Z ; CNewBoxesDoc::BoxOwner

; 113  :     };

  000a7	eb b4		 jmp	 SHORT $LN5@ReplaceOwn
$LN6@ReplaceOwn:

; 114  :   };

  000a9	eb 80		 jmp	 SHORT $LN2@ReplaceOwn
$LN1@ReplaceOwn:

; 115  : }

  000ab	52		 push	 edx
  000ac	8b cd		 mov	 ecx, ebp
  000ae	50		 push	 eax
  000af	8d 15 00 00 00
	00		 lea	 edx, DWORD PTR $LN11@ReplaceOwn
  000b5	e8 00 00 00 00	 call	 @_RTC_CheckStackVars@8
  000ba	58		 pop	 eax
  000bb	5a		 pop	 edx
  000bc	5f		 pop	 edi
  000bd	83 c4 30	 add	 esp, 48			; 00000030H
  000c0	3b ec		 cmp	 ebp, esp
  000c2	e8 00 00 00 00	 call	 __RTC_CheckEsp
  000c7	8b e5		 mov	 esp, ebp
  000c9	5d		 pop	 ebp
  000ca	c2 04 00	 ret	 4
  000cd	0f 1f 00	 npad	 3
$LN11@ReplaceOwn:
  000d0	01 00 00 00	 DD	 1
  000d4	00 00 00 00	 DD	 $LN10@ReplaceOwn
$LN10@ReplaceOwn:
  000d8	e4 ff ff ff	 DD	 -28			; ffffffe4H
  000dc	08 00 00 00	 DD	 8
  000e0	00 00 00 00	 DD	 $LN9@ReplaceOwn
$LN9@ReplaceOwn:
  000e4	70		 DB	 112			; 00000070H
  000e5	00		 DB	 0
?ReplaceOwners@TestCreation@@IAEXPAW4OWNER_TYPE@@@Z ENDP ; TestCreation::ReplaceOwners
_TEXT	ENDS
; Function compile flags: /Odtp /RTCsu
; File C:\Users\15485\Desktop\工程之星点格棋\工程之星点格棋\TestCreation.cpp
_TEXT	SEGMENT
$T1 = -48						; size = 8
$T2 = -40						; size = 8
_p$ = -28						; size = 8
_boxNum$ = -16						; size = 4
_col$ = -12						; size = 4
_row$ = -8						; size = 4
_this$ = -4						; size = 4
_ro$ = 8						; size = 4
?RemoveOwners@TestCreation@@IAEXPAW4OWNER_TYPE@@@Z PROC	; TestCreation::RemoveOwners
; _this$ = ecx

; 79   : {

  00000	55		 push	 ebp
  00001	8b ec		 mov	 ebp, esp
  00003	83 ec 30	 sub	 esp, 48			; 00000030H
  00006	57		 push	 edi
  00007	51		 push	 ecx
  00008	8d 7d d0	 lea	 edi, DWORD PTR [ebp-48]
  0000b	b9 0c 00 00 00	 mov	 ecx, 12			; 0000000cH
  00010	b8 cc cc cc cc	 mov	 eax, -858993460		; ccccccccH
  00015	f3 ab		 rep stosd
  00017	59		 pop	 ecx
  00018	89 4d fc	 mov	 DWORD PTR _this$[ebp], ecx

; 80   :   int row, col, boxNum;
; 81   :   boxNum = 0;

  0001b	c7 45 f0 00 00
	00 00		 mov	 DWORD PTR _boxNum$[ebp], 0

; 82   :   POINT p;
; 83   :   for (row=0; row<pDoc->GameSize().y-1; row++)

  00022	c7 45 f8 00 00
	00 00		 mov	 DWORD PTR _row$[ebp], 0
  00029	eb 09		 jmp	 SHORT $LN4@RemoveOwne
$LN2@RemoveOwne:
  0002b	8b 45 f8	 mov	 eax, DWORD PTR _row$[ebp]
  0002e	83 c0 01	 add	 eax, 1
  00031	89 45 f8	 mov	 DWORD PTR _row$[ebp], eax
$LN4@RemoveOwne:
  00034	8d 4d d8	 lea	 ecx, DWORD PTR $T2[ebp]
  00037	51		 push	 ecx
  00038	8b 0d 00 00 00
	00		 mov	 ecx, DWORD PTR ?pDoc@@3PAVCNewBoxesDoc@@A ; pDoc
  0003e	e8 00 00 00 00	 call	 ?GameSize@CNewBoxesDoc@@QAE?AUtagPOINT@@XZ ; CNewBoxesDoc::GameSize
  00043	8b 50 04	 mov	 edx, DWORD PTR [eax+4]
  00046	83 ea 01	 sub	 edx, 1
  00049	39 55 f8	 cmp	 DWORD PTR _row$[ebp], edx
  0004c	0f 8d dd 00 00
	00		 jge	 $LN1@RemoveOwne

; 84   :   {
; 85   :     p.y = row;

  00052	8b 45 f8	 mov	 eax, DWORD PTR _row$[ebp]
  00055	89 45 e8	 mov	 DWORD PTR _p$[ebp+4], eax

; 86   :     for (col=0; col<pDoc->GameSize().x-1; col++,boxNum++)

  00058	c7 45 f4 00 00
	00 00		 mov	 DWORD PTR _col$[ebp], 0
  0005f	eb 12		 jmp	 SHORT $LN7@RemoveOwne
$LN5@RemoveOwne:
  00061	8b 4d f4	 mov	 ecx, DWORD PTR _col$[ebp]
  00064	83 c1 01	 add	 ecx, 1
  00067	89 4d f4	 mov	 DWORD PTR _col$[ebp], ecx
  0006a	8b 55 f0	 mov	 edx, DWORD PTR _boxNum$[ebp]
  0006d	83 c2 01	 add	 edx, 1
  00070	89 55 f0	 mov	 DWORD PTR _boxNum$[ebp], edx
$LN7@RemoveOwne:
  00073	8d 45 d0	 lea	 eax, DWORD PTR $T1[ebp]
  00076	50		 push	 eax
  00077	8b 0d 00 00 00
	00		 mov	 ecx, DWORD PTR ?pDoc@@3PAVCNewBoxesDoc@@A ; pDoc
  0007d	e8 00 00 00 00	 call	 ?GameSize@CNewBoxesDoc@@QAE?AUtagPOINT@@XZ ; CNewBoxesDoc::GameSize
  00082	8b 08		 mov	 ecx, DWORD PTR [eax]
  00084	83 e9 01	 sub	 ecx, 1
  00087	39 4d f4	 cmp	 DWORD PTR _col$[ebp], ecx
  0008a	0f 8d 9a 00 00
	00		 jge	 $LN6@RemoveOwne

; 87   :     {
; 88   :       p.x = col;

  00090	8b 55 f4	 mov	 edx, DWORD PTR _col$[ebp]
  00093	89 55 e4	 mov	 DWORD PTR _p$[ebp], edx

; 89   :       ro[boxNum] = pDoc->BoxOwner(p);

  00096	8d 45 e4	 lea	 eax, DWORD PTR _p$[ebp]
  00099	50		 push	 eax
  0009a	8b 0d 00 00 00
	00		 mov	 ecx, DWORD PTR ?pDoc@@3PAVCNewBoxesDoc@@A ; pDoc
  000a0	e8 00 00 00 00	 call	 ?BoxOwner@CNewBoxesDoc@@QBE?AW4OWNER_TYPE@@ABUtagPOINT@@@Z ; CNewBoxesDoc::BoxOwner
  000a5	8b 4d f0	 mov	 ecx, DWORD PTR _boxNum$[ebp]
  000a8	8b 55 08	 mov	 edx, DWORD PTR _ro$[ebp]
  000ab	89 04 8a	 mov	 DWORD PTR [edx+ecx*4], eax

; 90   :       if (    (pDoc->HorizontalLineType(col, row) == LINE_COMPUTER)
; 91   :            || (pDoc->VerticalLineType(col, row) == LINE_COMPUTER)
; 92   :            || (pDoc->HorizontalLineType(col, row+1) == LINE_COMPUTER)
; 93   :            || (pDoc->VerticalLineType(col+1, row) == LINE_COMPUTER))

  000ae	8b 45 f8	 mov	 eax, DWORD PTR _row$[ebp]
  000b1	50		 push	 eax
  000b2	8b 4d f4	 mov	 ecx, DWORD PTR _col$[ebp]
  000b5	51		 push	 ecx
  000b6	8b 0d 00 00 00
	00		 mov	 ecx, DWORD PTR ?pDoc@@3PAVCNewBoxesDoc@@A ; pDoc
  000bc	e8 00 00 00 00	 call	 ?HorizontalLineType@CNewBoxesDoc@@QBE?AW4LINE_TYPE@@HH@Z ; CNewBoxesDoc::HorizontalLineType
  000c1	83 f8 01	 cmp	 eax, 1
  000c4	74 4e		 je	 SHORT $LN9@RemoveOwne
  000c6	8b 55 f8	 mov	 edx, DWORD PTR _row$[ebp]
  000c9	52		 push	 edx
  000ca	8b 45 f4	 mov	 eax, DWORD PTR _col$[ebp]
  000cd	50		 push	 eax
  000ce	8b 0d 00 00 00
	00		 mov	 ecx, DWORD PTR ?pDoc@@3PAVCNewBoxesDoc@@A ; pDoc
  000d4	e8 00 00 00 00	 call	 ?VerticalLineType@CNewBoxesDoc@@QBE?AW4LINE_TYPE@@HH@Z ; CNewBoxesDoc::VerticalLineType
  000d9	83 f8 01	 cmp	 eax, 1
  000dc	74 36		 je	 SHORT $LN9@RemoveOwne
  000de	8b 4d f8	 mov	 ecx, DWORD PTR _row$[ebp]
  000e1	83 c1 01	 add	 ecx, 1
  000e4	51		 push	 ecx
  000e5	8b 55 f4	 mov	 edx, DWORD PTR _col$[ebp]
  000e8	52		 push	 edx
  000e9	8b 0d 00 00 00
	00		 mov	 ecx, DWORD PTR ?pDoc@@3PAVCNewBoxesDoc@@A ; pDoc
  000ef	e8 00 00 00 00	 call	 ?HorizontalLineType@CNewBoxesDoc@@QBE?AW4LINE_TYPE@@HH@Z ; CNewBoxesDoc::HorizontalLineType
  000f4	83 f8 01	 cmp	 eax, 1
  000f7	74 1b		 je	 SHORT $LN9@RemoveOwne
  000f9	8b 45 f8	 mov	 eax, DWORD PTR _row$[ebp]
  000fc	50		 push	 eax
  000fd	8b 4d f4	 mov	 ecx, DWORD PTR _col$[ebp]
  00100	83 c1 01	 add	 ecx, 1
  00103	51		 push	 ecx
  00104	8b 0d 00 00 00
	00		 mov	 ecx, DWORD PTR ?pDoc@@3PAVCNewBoxesDoc@@A ; pDoc
  0010a	e8 00 00 00 00	 call	 ?VerticalLineType@CNewBoxesDoc@@QBE?AW4LINE_TYPE@@HH@Z ; CNewBoxesDoc::VerticalLineType
  0010f	83 f8 01	 cmp	 eax, 1
  00112	75 11		 jne	 SHORT $LN8@RemoveOwne
$LN9@RemoveOwne:

; 94   :       {
; 95   :         pDoc->BoxOwner(p, OWNER_NONE);

  00114	6a 00		 push	 0
  00116	8d 55 e4	 lea	 edx, DWORD PTR _p$[ebp]
  00119	52		 push	 edx
  0011a	8b 0d 00 00 00
	00		 mov	 ecx, DWORD PTR ?pDoc@@3PAVCNewBoxesDoc@@A ; pDoc
  00120	e8 00 00 00 00	 call	 ?BoxOwner@CNewBoxesDoc@@QAEXABUtagPOINT@@W4OWNER_TYPE@@@Z ; CNewBoxesDoc::BoxOwner
$LN8@RemoveOwne:

; 96   :       };
; 97   :     };

  00125	e9 37 ff ff ff	 jmp	 $LN5@RemoveOwne
$LN6@RemoveOwne:

; 98   :   };

  0012a	e9 fc fe ff ff	 jmp	 $LN2@RemoveOwne
$LN1@RemoveOwne:

; 99   : }

  0012f	52		 push	 edx
  00130	8b cd		 mov	 ecx, ebp
  00132	50		 push	 eax
  00133	8d 15 00 00 00
	00		 lea	 edx, DWORD PTR $LN13@RemoveOwne
  00139	e8 00 00 00 00	 call	 @_RTC_CheckStackVars@8
  0013e	58		 pop	 eax
  0013f	5a		 pop	 edx
  00140	5f		 pop	 edi
  00141	83 c4 30	 add	 esp, 48			; 00000030H
  00144	3b ec		 cmp	 ebp, esp
  00146	e8 00 00 00 00	 call	 __RTC_CheckEsp
  0014b	8b e5		 mov	 esp, ebp
  0014d	5d		 pop	 ebp
  0014e	c2 04 00	 ret	 4
  00151	0f 1f 00	 npad	 3
$LN13@RemoveOwne:
  00154	01 00 00 00	 DD	 1
  00158	00 00 00 00	 DD	 $LN12@RemoveOwne
$LN12@RemoveOwne:
  0015c	e4 ff ff ff	 DD	 -28			; ffffffe4H
  00160	08 00 00 00	 DD	 8
  00164	00 00 00 00	 DD	 $LN11@RemoveOwne
$LN11@RemoveOwne:
  00168	70		 DB	 112			; 00000070H
  00169	00		 DB	 0
?RemoveOwners@TestCreation@@IAEXPAW4OWNER_TYPE@@@Z ENDP	; TestCreation::RemoveOwners
_TEXT	ENDS
; Function compile flags: /Odtp /RTCsu
; File C:\Users\15485\Desktop\工程之星点格棋\工程之星点格棋\TestCreation.cpp
_TEXT	SEGMENT
_this$ = -4						; size = 4
?ExtractDataFromGame@TestCreation@@IAEXXZ PROC		; TestCreation::ExtractDataFromGame
; _this$ = ecx

; 138  : {

  00000	55		 push	 ebp
  00001	8b ec		 mov	 ebp, esp
  00003	51		 push	 ecx
  00004	c7 45 fc cc cc
	cc cc		 mov	 DWORD PTR [ebp-4], -858993460 ; ccccccccH
  0000b	89 4d fc	 mov	 DWORD PTR _this$[ebp], ecx

; 139  :   m_randomMove = pDoc->AI_Option(MT_RANDOM);

  0000e	6a 01		 push	 1
  00010	8b 0d 00 00 00
	00		 mov	 ecx, DWORD PTR ?pDoc@@3PAVCNewBoxesDoc@@A ; pDoc
  00016	e8 00 00 00 00	 call	 ?AI_Option@CNewBoxesDoc@@QBE_NW4MOVE_TYPE@@@Z ; CNewBoxesDoc::AI_Option
  0001b	0f b6 c0	 movzx	 eax, al
  0001e	8b 4d fc	 mov	 ecx, DWORD PTR _this$[ebp]
  00021	89 81 ac 00 00
	00		 mov	 DWORD PTR [ecx+172], eax

; 140  :   m_obviousCapture = pDoc->AI_Option(MT_OBVIOUSCAPTURE);

  00027	6a 02		 push	 2
  00029	8b 0d 00 00 00
	00		 mov	 ecx, DWORD PTR ?pDoc@@3PAVCNewBoxesDoc@@A ; pDoc
  0002f	e8 00 00 00 00	 call	 ?AI_Option@CNewBoxesDoc@@QBE_NW4MOVE_TYPE@@@Z ; CNewBoxesDoc::AI_Option
  00034	0f b6 d0	 movzx	 edx, al
  00037	8b 45 fc	 mov	 eax, DWORD PTR _this$[ebp]
  0003a	89 90 a8 00 00
	00		 mov	 DWORD PTR [eax+168], edx

; 141  :   m_giveNothing = pDoc->AI_Option(MT_GIVENOTHING);

  00040	6a 03		 push	 3
  00042	8b 0d 00 00 00
	00		 mov	 ecx, DWORD PTR ?pDoc@@3PAVCNewBoxesDoc@@A ; pDoc
  00048	e8 00 00 00 00	 call	 ?AI_Option@CNewBoxesDoc@@QBE_NW4MOVE_TYPE@@@Z ; CNewBoxesDoc::AI_Option
  0004d	0f b6 c8	 movzx	 ecx, al
  00050	8b 55 fc	 mov	 edx, DWORD PTR _this$[ebp]
  00053	89 8a b4 00 00
	00		 mov	 DWORD PTR [edx+180], ecx

; 142  :   m_giveLittle = pDoc->AI_Option(MT_GIVELITTLE);

  00059	6a 07		 push	 7
  0005b	8b 0d 00 00 00
	00		 mov	 ecx, DWORD PTR ?pDoc@@3PAVCNewBoxesDoc@@A ; pDoc
  00061	e8 00 00 00 00	 call	 ?AI_Option@CNewBoxesDoc@@QBE_NW4MOVE_TYPE@@@Z ; CNewBoxesDoc::AI_Option
  00066	0f b6 c0	 movzx	 eax, al
  00069	8b 4d fc	 mov	 ecx, DWORD PTR _this$[ebp]
  0006c	89 81 b0 00 00
	00		 mov	 DWORD PTR [ecx+176], eax

; 143  :   m_grabAnything = pDoc->AI_Option(MT_GRABANYTHING);

  00072	6a 08		 push	 8
  00074	8b 0d 00 00 00
	00		 mov	 ecx, DWORD PTR ?pDoc@@3PAVCNewBoxesDoc@@A ; pDoc
  0007a	e8 00 00 00 00	 call	 ?AI_Option@CNewBoxesDoc@@QBE_NW4MOVE_TYPE@@@Z ; CNewBoxesDoc::AI_Option
  0007f	0f b6 d0	 movzx	 edx, al
  00082	8b 45 fc	 mov	 eax, DWORD PTR _this$[ebp]
  00085	89 90 b8 00 00
	00		 mov	 DWORD PTR [eax+184], edx

; 144  :   m_simpleWin = pDoc->AI_Option(MT_SIMPLEWIN);

  0008b	6a 09		 push	 9
  0008d	8b 0d 00 00 00
	00		 mov	 ecx, DWORD PTR ?pDoc@@3PAVCNewBoxesDoc@@A ; pDoc
  00093	e8 00 00 00 00	 call	 ?AI_Option@CNewBoxesDoc@@QBE_NW4MOVE_TYPE@@@Z ; CNewBoxesDoc::AI_Option
  00098	0f b6 c8	 movzx	 ecx, al
  0009b	8b 55 fc	 mov	 edx, DWORD PTR _this$[ebp]
  0009e	89 8a bc 00 00
	00		 mov	 DWORD PTR [edx+188], ecx

; 145  :   m_verifyNimstringValue = pDoc->AI_Option(MT_VERIFYNIMSTRINGVALUE);

  000a4	6a 10		 push	 16			; 00000010H
  000a6	8b 0d 00 00 00
	00		 mov	 ecx, DWORD PTR ?pDoc@@3PAVCNewBoxesDoc@@A ; pDoc
  000ac	e8 00 00 00 00	 call	 ?AI_Option@CNewBoxesDoc@@QBE_NW4MOVE_TYPE@@@Z ; CNewBoxesDoc::AI_Option
  000b1	0f b6 c0	 movzx	 eax, al
  000b4	8b 4d fc	 mov	 ecx, DWORD PTR _this$[ebp]
  000b7	89 81 c0 00 00
	00		 mov	 DWORD PTR [ecx+192], eax

; 146  :   m_nimstringValue = pDoc->NimstringValueToVerify();

  000bd	8b 0d 00 00 00
	00		 mov	 ecx, DWORD PTR ?pDoc@@3PAVCNewBoxesDoc@@A ; pDoc
  000c3	e8 00 00 00 00	 call	 ?NimstringValueToVerify@CNewBoxesDoc@@QAEHXZ ; CNewBoxesDoc::NimstringValueToVerify
  000c8	8b 55 fc	 mov	 edx, DWORD PTR _this$[ebp]
  000cb	89 82 c4 00 00
	00		 mov	 DWORD PTR [edx+196], eax

; 147  : }

  000d1	83 c4 04	 add	 esp, 4
  000d4	3b ec		 cmp	 ebp, esp
  000d6	e8 00 00 00 00	 call	 __RTC_CheckEsp
  000db	8b e5		 mov	 esp, ebp
  000dd	5d		 pop	 ebp
  000de	c3		 ret	 0
?ExtractDataFromGame@TestCreation@@IAEXXZ ENDP		; TestCreation::ExtractDataFromGame
_TEXT	ENDS
; Function compile flags: /Odtp /RTCsu
; File C:\Users\15485\Desktop\工程之星点格棋\工程之星点格棋\TestCreation.cpp
_TEXT	SEGMENT
_this$ = -4						; size = 4
?PackDataIntoGame@TestCreation@@IAEXXZ PROC		; TestCreation::PackDataIntoGame
; _this$ = ecx

; 67   : {

  00000	55		 push	 ebp
  00001	8b ec		 mov	 ebp, esp
  00003	51		 push	 ecx
  00004	c7 45 fc cc cc
	cc cc		 mov	 DWORD PTR [ebp-4], -858993460 ; ccccccccH
  0000b	89 4d fc	 mov	 DWORD PTR _this$[ebp], ecx

; 68   :   pDoc->AI_Option(MT_RANDOM, m_randomMove);

  0000e	8b 45 fc	 mov	 eax, DWORD PTR _this$[ebp]
  00011	8b 88 ac 00 00
	00		 mov	 ecx, DWORD PTR [eax+172]
  00017	51		 push	 ecx
  00018	6a 01		 push	 1
  0001a	8b 0d 00 00 00
	00		 mov	 ecx, DWORD PTR ?pDoc@@3PAVCNewBoxesDoc@@A ; pDoc
  00020	e8 00 00 00 00	 call	 ?AI_Option@CNewBoxesDoc@@QAEXW4MOVE_TYPE@@H@Z ; CNewBoxesDoc::AI_Option

; 69   :   pDoc->AI_Option(MT_OBVIOUSCAPTURE, m_obviousCapture);

  00025	8b 55 fc	 mov	 edx, DWORD PTR _this$[ebp]
  00028	8b 82 a8 00 00
	00		 mov	 eax, DWORD PTR [edx+168]
  0002e	50		 push	 eax
  0002f	6a 02		 push	 2
  00031	8b 0d 00 00 00
	00		 mov	 ecx, DWORD PTR ?pDoc@@3PAVCNewBoxesDoc@@A ; pDoc
  00037	e8 00 00 00 00	 call	 ?AI_Option@CNewBoxesDoc@@QAEXW4MOVE_TYPE@@H@Z ; CNewBoxesDoc::AI_Option

; 70   :   pDoc->AI_Option(MT_GIVENOTHING, m_giveNothing);

  0003c	8b 4d fc	 mov	 ecx, DWORD PTR _this$[ebp]
  0003f	8b 91 b4 00 00
	00		 mov	 edx, DWORD PTR [ecx+180]
  00045	52		 push	 edx
  00046	6a 03		 push	 3
  00048	8b 0d 00 00 00
	00		 mov	 ecx, DWORD PTR ?pDoc@@3PAVCNewBoxesDoc@@A ; pDoc
  0004e	e8 00 00 00 00	 call	 ?AI_Option@CNewBoxesDoc@@QAEXW4MOVE_TYPE@@H@Z ; CNewBoxesDoc::AI_Option

; 71   :   pDoc->AI_Option(MT_GIVELITTLE, m_giveLittle);

  00053	8b 45 fc	 mov	 eax, DWORD PTR _this$[ebp]
  00056	8b 88 b0 00 00
	00		 mov	 ecx, DWORD PTR [eax+176]
  0005c	51		 push	 ecx
  0005d	6a 07		 push	 7
  0005f	8b 0d 00 00 00
	00		 mov	 ecx, DWORD PTR ?pDoc@@3PAVCNewBoxesDoc@@A ; pDoc
  00065	e8 00 00 00 00	 call	 ?AI_Option@CNewBoxesDoc@@QAEXW4MOVE_TYPE@@H@Z ; CNewBoxesDoc::AI_Option

; 72   :   pDoc->AI_Option(MT_GRABANYTHING, m_grabAnything);

  0006a	8b 55 fc	 mov	 edx, DWORD PTR _this$[ebp]
  0006d	8b 82 b8 00 00
	00		 mov	 eax, DWORD PTR [edx+184]
  00073	50		 push	 eax
  00074	6a 08		 push	 8
  00076	8b 0d 00 00 00
	00		 mov	 ecx, DWORD PTR ?pDoc@@3PAVCNewBoxesDoc@@A ; pDoc
  0007c	e8 00 00 00 00	 call	 ?AI_Option@CNewBoxesDoc@@QAEXW4MOVE_TYPE@@H@Z ; CNewBoxesDoc::AI_Option

; 73   :   pDoc->AI_Option(MT_SIMPLEWIN, m_simpleWin);

  00081	8b 4d fc	 mov	 ecx, DWORD PTR _this$[ebp]
  00084	8b 91 bc 00 00
	00		 mov	 edx, DWORD PTR [ecx+188]
  0008a	52		 push	 edx
  0008b	6a 09		 push	 9
  0008d	8b 0d 00 00 00
	00		 mov	 ecx, DWORD PTR ?pDoc@@3PAVCNewBoxesDoc@@A ; pDoc
  00093	e8 00 00 00 00	 call	 ?AI_Option@CNewBoxesDoc@@QAEXW4MOVE_TYPE@@H@Z ; CNewBoxesDoc::AI_Option

; 74   :   pDoc->AI_Option(MT_VERIFYNIMSTRINGVALUE, m_verifyNimstringValue);

  00098	8b 45 fc	 mov	 eax, DWORD PTR _this$[ebp]
  0009b	8b 88 c0 00 00
	00		 mov	 ecx, DWORD PTR [eax+192]
  000a1	51		 push	 ecx
  000a2	6a 10		 push	 16			; 00000010H
  000a4	8b 0d 00 00 00
	00		 mov	 ecx, DWORD PTR ?pDoc@@3PAVCNewBoxesDoc@@A ; pDoc
  000aa	e8 00 00 00 00	 call	 ?AI_Option@CNewBoxesDoc@@QAEXW4MOVE_TYPE@@H@Z ; CNewBoxesDoc::AI_Option

; 75   :   pDoc->NimstringValueToVerify(m_nimstringValue);

  000af	8b 55 fc	 mov	 edx, DWORD PTR _this$[ebp]
  000b2	8b 82 c4 00 00
	00		 mov	 eax, DWORD PTR [edx+196]
  000b8	50		 push	 eax
  000b9	8b 0d 00 00 00
	00		 mov	 ecx, DWORD PTR ?pDoc@@3PAVCNewBoxesDoc@@A ; pDoc
  000bf	e8 00 00 00 00	 call	 ?NimstringValueToVerify@CNewBoxesDoc@@QAEXH@Z ; CNewBoxesDoc::NimstringValueToVerify

; 76   : }

  000c4	83 c4 04	 add	 esp, 4
  000c7	3b ec		 cmp	 ebp, esp
  000c9	e8 00 00 00 00	 call	 __RTC_CheckEsp
  000ce	8b e5		 mov	 esp, ebp
  000d0	5d		 pop	 ebp
  000d1	c3		 ret	 0
?PackDataIntoGame@TestCreation@@IAEXXZ ENDP		; TestCreation::PackDataIntoGame
_TEXT	ENDS
; Function compile flags: /Odtp /RTCsu
; File C:\Users\15485\Desktop\工程之星点格棋\工程之星点格棋\TestCreation.cpp
_TEXT	SEGMENT
_this$ = -4						; size = 4
?GetMessageMap@TestCreation@@MBEPBUAFX_MSGMAP@@XZ PROC	; TestCreation::GetMessageMap
; _this$ = ecx

; 58   : BEGIN_MESSAGE_MAP(TestCreation, CDialog)

  00000	55		 push	 ebp
  00001	8b ec		 mov	 ebp, esp
  00003	51		 push	 ecx
  00004	c7 45 fc cc cc
	cc cc		 mov	 DWORD PTR [ebp-4], -858993460 ; ccccccccH
  0000b	89 4d fc	 mov	 DWORD PTR _this$[ebp], ecx
  0000e	e8 00 00 00 00	 call	 ?GetThisMessageMap@TestCreation@@KGPBUAFX_MSGMAP@@XZ ; TestCreation::GetThisMessageMap
  00013	83 c4 04	 add	 esp, 4
  00016	3b ec		 cmp	 ebp, esp
  00018	e8 00 00 00 00	 call	 __RTC_CheckEsp
  0001d	8b e5		 mov	 esp, ebp
  0001f	5d		 pop	 ebp
  00020	c3		 ret	 0
?GetMessageMap@TestCreation@@MBEPBUAFX_MSGMAP@@XZ ENDP	; TestCreation::GetMessageMap
_TEXT	ENDS
; Function compile flags: /Odtp /RTCsu
; File C:\Users\15485\Desktop\工程之星点格棋\工程之星点格棋\TestCreation.cpp
_TEXT	SEGMENT
?GetThisMessageMap@TestCreation@@KGPBUAFX_MSGMAP@@XZ PROC ; TestCreation::GetThisMessageMap

; 58   : BEGIN_MESSAGE_MAP(TestCreation, CDialog)

  00000	55		 push	 ebp
  00001	8b ec		 mov	 ebp, esp

; 59   : 	//{{AFX_MSG_MAP(TestCreation)
; 60   : 	//}}AFX_MSG_MAP
; 61   : END_MESSAGE_MAP()

  00003	b8 00 00 00 00	 mov	 eax, OFFSET ?messageMap@?1??GetThisMessageMap@TestCreation@@KGPBUAFX_MSGMAP@@XZ@4U3@B
  00008	5d		 pop	 ebp
  00009	c3		 ret	 0
?GetThisMessageMap@TestCreation@@KGPBUAFX_MSGMAP@@XZ ENDP ; TestCreation::GetThisMessageMap
_TEXT	ENDS
; Function compile flags: /Odtp /RTCsu
; File C:\Users\15485\Desktop\工程之星点格棋\工程之星点格棋\TestCreation.cpp
_TEXT	SEGMENT
_this$ = -4						; size = 4
?OnInitDialog@TestCreation@@MAEHXZ PROC			; TestCreation::OnInitDialog
; _this$ = ecx

; 150  : {

  00000	55		 push	 ebp
  00001	8b ec		 mov	 ebp, esp
  00003	51		 push	 ecx
  00004	c7 45 fc cc cc
	cc cc		 mov	 DWORD PTR [ebp-4], -858993460 ; ccccccccH
  0000b	89 4d fc	 mov	 DWORD PTR _this$[ebp], ecx

; 151  : 	CDialog::OnInitDialog();

  0000e	8b 4d fc	 mov	 ecx, DWORD PTR _this$[ebp]
  00011	e8 00 00 00 00	 call	 ?OnInitDialog@CDialog@@UAEHXZ ; CDialog::OnInitDialog

; 152  : 	
; 153  : 	// TODO: Add extra initialization here
; 154  :   ExtractDataFromGame();

  00016	8b 4d fc	 mov	 ecx, DWORD PTR _this$[ebp]
  00019	e8 00 00 00 00	 call	 ?ExtractDataFromGame@TestCreation@@IAEXXZ ; TestCreation::ExtractDataFromGame

; 155  :   UpdateData(false);

  0001e	6a 00		 push	 0
  00020	8b 4d fc	 mov	 ecx, DWORD PTR _this$[ebp]
  00023	e8 00 00 00 00	 call	 ?UpdateData@CWnd@@QAEHH@Z ; CWnd::UpdateData

; 156  : 	return TRUE;  // return TRUE unless you set the focus to a control

  00028	b8 01 00 00 00	 mov	 eax, 1

; 157  : 	              // EXCEPTION: OCX Property Pages should return FALSE
; 158  : }

  0002d	83 c4 04	 add	 esp, 4
  00030	3b ec		 cmp	 ebp, esp
  00032	e8 00 00 00 00	 call	 __RTC_CheckEsp
  00037	8b e5		 mov	 esp, ebp
  00039	5d		 pop	 ebp
  0003a	c3		 ret	 0
?OnInitDialog@TestCreation@@MAEHXZ ENDP			; TestCreation::OnInitDialog
_TEXT	ENDS
; Function compile flags: /Odtp /RTCsu
; File C:\Users\15485\Desktop\工程之星点格棋\工程之星点格棋\TestCreation.cpp
_TEXT	SEGMENT
tv170 = -1332						; size = 4
tv65 = -1328						; size = 4
$T2 = -1324						; size = 4
_ar$ = -1316						; size = 72
_f$ = -1236						; size = 20
_fileDlg$ = -1208					; size = 736
_removedOwners$ = -464					; size = 440
_this$ = -20						; size = 4
__$ArrayPad$ = -16					; size = 4
__$EHRec$ = -12						; size = 12
?OnOK@TestCreation@@MAEXXZ PROC				; TestCreation::OnOK
; _this$ = ecx

; 119  : {

  00000	55		 push	 ebp
  00001	8b ec		 mov	 ebp, esp
  00003	6a ff		 push	 -1
  00005	68 00 00 00 00	 push	 __ehhandler$?OnOK@TestCreation@@MAEXXZ
  0000a	64 a1 00 00 00
	00		 mov	 eax, DWORD PTR fs:0
  00010	50		 push	 eax
  00011	81 ec 28 05 00
	00		 sub	 esp, 1320		; 00000528H
  00017	56		 push	 esi
  00018	57		 push	 edi
  00019	51		 push	 ecx
  0001a	8d bd cc fa ff
	ff		 lea	 edi, DWORD PTR [ebp-1332]
  00020	b9 4a 01 00 00	 mov	 ecx, 330		; 0000014aH
  00025	b8 cc cc cc cc	 mov	 eax, -858993460		; ccccccccH
  0002a	f3 ab		 rep stosd
  0002c	59		 pop	 ecx
  0002d	a1 00 00 00 00	 mov	 eax, DWORD PTR ___security_cookie
  00032	33 c5		 xor	 eax, ebp
  00034	89 45 f0	 mov	 DWORD PTR __$ArrayPad$[ebp], eax
  00037	50		 push	 eax
  00038	8d 45 f4	 lea	 eax, DWORD PTR __$EHRec$[ebp]
  0003b	64 a3 00 00 00
	00		 mov	 DWORD PTR fs:0, eax
  00041	89 4d ec	 mov	 DWORD PTR _this$[ebp], ecx

; 120  : 	// TODO: Add extra validation here
; 121  :   OWNER_TYPE removedOwners[(MAX_WIDTH-1)*(MAX_HEIGHT-1)];
; 122  :   CFileDialog fileDlg(false,"txt",NULL,OFN_OVERWRITEPROMPT,"Text Files (*.txt)|*.txt|All Files (*.*)|*.*||");

  00044	6a 01		 push	 1
  00046	6a 00		 push	 0
  00048	6a 00		 push	 0
  0004a	68 00 00 00 00	 push	 OFFSET $SG226054
  0004f	6a 02		 push	 2
  00051	6a 00		 push	 0
  00053	68 00 00 00 00	 push	 OFFSET $SG226055
  00058	6a 00		 push	 0
  0005a	8d 8d 48 fb ff
	ff		 lea	 ecx, DWORD PTR _fileDlg$[ebp]
  00060	e8 00 00 00 00	 call	 ??0CFileDialog@@QAE@HPBD0K0PAVCWnd@@KH@Z ; CFileDialog::CFileDialog
  00065	c7 45 fc 00 00
	00 00		 mov	 DWORD PTR __$EHRec$[ebp+8], 0

; 123  :   UpdateData(true);

  0006c	6a 01		 push	 1
  0006e	8b 4d ec	 mov	 ecx, DWORD PTR _this$[ebp]
  00071	e8 00 00 00 00	 call	 ?UpdateData@CWnd@@QAEHH@Z ; CWnd::UpdateData

; 124  :   if (fileDlg.DoModal() != IDOK) return;

  00076	8d 8d 48 fb ff
	ff		 lea	 ecx, DWORD PTR _fileDlg$[ebp]
  0007c	e8 00 00 00 00	 call	 ?DoModal@CFileDialog@@UAEHXZ ; CFileDialog::DoModal
  00081	83 f8 01	 cmp	 eax, 1
  00084	74 17		 je	 SHORT $LN2@OnOK
  00086	c7 45 fc ff ff
	ff ff		 mov	 DWORD PTR __$EHRec$[ebp+8], -1
  0008d	8d 8d 48 fb ff
	ff		 lea	 ecx, DWORD PTR _fileDlg$[ebp]
  00093	e8 00 00 00 00	 call	 ??1CFileDialog@@UAE@XZ	; CFileDialog::~CFileDialog
  00098	e9 3b 01 00 00	 jmp	 $LN1@OnOK
$LN2@OnOK:

; 125  :   CFile f(fileDlg.GetPathName(),CFile::modeCreate | CFile::modeWrite);

  0009d	68 01 10 00 00	 push	 4097			; 00001001H
  000a2	8d 85 d4 fa ff
	ff		 lea	 eax, DWORD PTR $T2[ebp]
  000a8	50		 push	 eax
  000a9	8d 8d 48 fb ff
	ff		 lea	 ecx, DWORD PTR _fileDlg$[ebp]
  000af	e8 00 00 00 00	 call	 ?GetPathName@CFileDialog@@QBE?AV?$CStringT@DV?$StrTraitMFC_DLL@DV?$ChTraitsCRT@D@ATL@@@@@ATL@@XZ ; CFileDialog::GetPathName
  000b4	89 85 d0 fa ff
	ff		 mov	 DWORD PTR tv65[ebp], eax
  000ba	8b 8d d0 fa ff
	ff		 mov	 ecx, DWORD PTR tv65[ebp]
  000c0	89 8d cc fa ff
	ff		 mov	 DWORD PTR tv170[ebp], ecx
  000c6	c6 45 fc 01	 mov	 BYTE PTR __$EHRec$[ebp+8], 1
  000ca	8b f4		 mov	 esi, esp
  000cc	8b 8d cc fa ff
	ff		 mov	 ecx, DWORD PTR tv170[ebp]
  000d2	ff 15 00 00 00
	00		 call	 DWORD PTR __imp_??B?$CSimpleStringT@D$00@ATL@@QBEPBDXZ
  000d8	3b f4		 cmp	 esi, esp
  000da	e8 00 00 00 00	 call	 __RTC_CheckEsp
  000df	50		 push	 eax
  000e0	8d 8d 2c fb ff
	ff		 lea	 ecx, DWORD PTR _f$[ebp]
  000e6	e8 00 00 00 00	 call	 ??0CFile@@QAE@PBDI@Z	; CFile::CFile
  000eb	c6 45 fc 03	 mov	 BYTE PTR __$EHRec$[ebp+8], 3
  000ef	8b f4		 mov	 esi, esp
  000f1	8d 8d d4 fa ff
	ff		 lea	 ecx, DWORD PTR $T2[ebp]
  000f7	ff 15 00 00 00
	00		 call	 DWORD PTR __imp_??1?$CStringT@DV?$StrTraitMFC_DLL@DV?$ChTraitsCRT@D@ATL@@@@@ATL@@QAE@XZ
  000fd	3b f4		 cmp	 esi, esp
  000ff	e8 00 00 00 00	 call	 __RTC_CheckEsp

; 126  :   CArchive ar(&f,CArchive::store );

  00104	6a 00		 push	 0
  00106	68 00 10 00 00	 push	 4096			; 00001000H
  0010b	6a 00		 push	 0
  0010d	8d 95 2c fb ff
	ff		 lea	 edx, DWORD PTR _f$[ebp]
  00113	52		 push	 edx
  00114	8d 8d dc fa ff
	ff		 lea	 ecx, DWORD PTR _ar$[ebp]
  0011a	e8 00 00 00 00	 call	 ??0CArchive@@QAE@PAVCFile@@IHPAX@Z ; CArchive::CArchive
  0011f	c6 45 fc 04	 mov	 BYTE PTR __$EHRec$[ebp+8], 4

; 127  :   PackDataIntoGame();

  00123	8b 4d ec	 mov	 ecx, DWORD PTR _this$[ebp]
  00126	e8 00 00 00 00	 call	 ?PackDataIntoGame@TestCreation@@IAEXXZ ; TestCreation::PackDataIntoGame

; 128  :   RemoveOwners(removedOwners);

  0012b	8d 85 30 fe ff
	ff		 lea	 eax, DWORD PTR _removedOwners$[ebp]
  00131	50		 push	 eax
  00132	8b 4d ec	 mov	 ecx, DWORD PTR _this$[ebp]
  00135	e8 00 00 00 00	 call	 ?RemoveOwners@TestCreation@@IAEXPAW4OWNER_TYPE@@@Z ; TestCreation::RemoveOwners

; 129  :   pDoc->Serialize(ar);

  0013a	8b f4		 mov	 esi, esp
  0013c	8d 8d dc fa ff
	ff		 lea	 ecx, DWORD PTR _ar$[ebp]
  00142	51		 push	 ecx
  00143	8b 15 00 00 00
	00		 mov	 edx, DWORD PTR ?pDoc@@3PAVCNewBoxesDoc@@A ; pDoc
  00149	8b 02		 mov	 eax, DWORD PTR [edx]
  0014b	8b 0d 00 00 00
	00		 mov	 ecx, DWORD PTR ?pDoc@@3PAVCNewBoxesDoc@@A ; pDoc
  00151	8b 50 08	 mov	 edx, DWORD PTR [eax+8]
  00154	ff d2		 call	 edx
  00156	3b f4		 cmp	 esi, esp
  00158	e8 00 00 00 00	 call	 __RTC_CheckEsp

; 130  :   ReplaceOwners(removedOwners);

  0015d	8d 85 30 fe ff
	ff		 lea	 eax, DWORD PTR _removedOwners$[ebp]
  00163	50		 push	 eax
  00164	8b 4d ec	 mov	 ecx, DWORD PTR _this$[ebp]
  00167	e8 00 00 00 00	 call	 ?ReplaceOwners@TestCreation@@IAEXPAW4OWNER_TYPE@@@Z ; TestCreation::ReplaceOwners

; 131  :   ar.Close();

  0016c	8d 8d dc fa ff
	ff		 lea	 ecx, DWORD PTR _ar$[ebp]
  00172	e8 00 00 00 00	 call	 ?Close@CArchive@@QAEXXZ	; CArchive::Close

; 132  :   f.Close();

  00177	8d 8d 2c fb ff
	ff		 lea	 ecx, DWORD PTR _f$[ebp]
  0017d	e8 00 00 00 00	 call	 ?Close@CFile@@UAEXXZ	; CFile::Close

; 133  :   pDoc->SetModifiedFlag(false);

  00182	8b f4		 mov	 esi, esp
  00184	6a 00		 push	 0
  00186	8b 0d 00 00 00
	00		 mov	 ecx, DWORD PTR ?pDoc@@3PAVCNewBoxesDoc@@A ; pDoc
  0018c	8b 11		 mov	 edx, DWORD PTR [ecx]
  0018e	8b 0d 00 00 00
	00		 mov	 ecx, DWORD PTR ?pDoc@@3PAVCNewBoxesDoc@@A ; pDoc
  00194	8b 42 6c	 mov	 eax, DWORD PTR [edx+108]
  00197	ff d0		 call	 eax
  00199	3b f4		 cmp	 esi, esp
  0019b	e8 00 00 00 00	 call	 __RTC_CheckEsp

; 134  : 	CDialog::OnOK();

  001a0	8b 4d ec	 mov	 ecx, DWORD PTR _this$[ebp]
  001a3	e8 00 00 00 00	 call	 ?OnOK@CDialog@@MAEXXZ	; CDialog::OnOK

; 135  : }

  001a8	c6 45 fc 03	 mov	 BYTE PTR __$EHRec$[ebp+8], 3
  001ac	8d 8d dc fa ff
	ff		 lea	 ecx, DWORD PTR _ar$[ebp]
  001b2	e8 00 00 00 00	 call	 ??1CArchive@@QAE@XZ	; CArchive::~CArchive
  001b7	c6 45 fc 00	 mov	 BYTE PTR __$EHRec$[ebp+8], 0
  001bb	8d 8d 2c fb ff
	ff		 lea	 ecx, DWORD PTR _f$[ebp]
  001c1	e8 00 00 00 00	 call	 ??1CFile@@UAE@XZ	; CFile::~CFile
  001c6	c7 45 fc ff ff
	ff ff		 mov	 DWORD PTR __$EHRec$[ebp+8], -1
  001cd	8d 8d 48 fb ff
	ff		 lea	 ecx, DWORD PTR _fileDlg$[ebp]
  001d3	e8 00 00 00 00	 call	 ??1CFileDialog@@UAE@XZ	; CFileDialog::~CFileDialog
$LN1@OnOK:
  001d8	52		 push	 edx
  001d9	8b cd		 mov	 ecx, ebp
  001db	50		 push	 eax
  001dc	8d 15 00 00 00
	00		 lea	 edx, DWORD PTR $LN14@OnOK
  001e2	e8 00 00 00 00	 call	 @_RTC_CheckStackVars@8
  001e7	58		 pop	 eax
  001e8	5a		 pop	 edx
  001e9	8b 4d f4	 mov	 ecx, DWORD PTR __$EHRec$[ebp]
  001ec	64 89 0d 00 00
	00 00		 mov	 DWORD PTR fs:0, ecx
  001f3	59		 pop	 ecx
  001f4	5f		 pop	 edi
  001f5	5e		 pop	 esi
  001f6	8b 4d f0	 mov	 ecx, DWORD PTR __$ArrayPad$[ebp]
  001f9	33 cd		 xor	 ecx, ebp
  001fb	e8 00 00 00 00	 call	 @__security_check_cookie@4
  00200	81 c4 34 05 00
	00		 add	 esp, 1332		; 00000534H
  00206	3b ec		 cmp	 ebp, esp
  00208	e8 00 00 00 00	 call	 __RTC_CheckEsp
  0020d	8b e5		 mov	 esp, ebp
  0020f	5d		 pop	 ebp
  00210	c3		 ret	 0
  00211	0f 1f 00	 npad	 3
$LN14@OnOK:
  00214	04 00 00 00	 DD	 4
  00218	00 00 00 00	 DD	 $LN13@OnOK
$LN13@OnOK:
  0021c	30 fe ff ff	 DD	 -464			; fffffe30H
  00220	b8 01 00 00	 DD	 440			; 000001b8H
  00224	00 00 00 00	 DD	 $LN8@OnOK
  00228	48 fb ff ff	 DD	 -1208			; fffffb48H
  0022c	e0 02 00 00	 DD	 736			; 000002e0H
  00230	00 00 00 00	 DD	 $LN9@OnOK
  00234	2c fb ff ff	 DD	 -1236			; fffffb2cH
  00238	14 00 00 00	 DD	 20			; 00000014H
  0023c	00 00 00 00	 DD	 $LN10@OnOK
  00240	dc fa ff ff	 DD	 -1316			; fffffadcH
  00244	48 00 00 00	 DD	 72			; 00000048H
  00248	00 00 00 00	 DD	 $LN11@OnOK
$LN11@OnOK:
  0024c	61		 DB	 97			; 00000061H
  0024d	72		 DB	 114			; 00000072H
  0024e	00		 DB	 0
$LN10@OnOK:
  0024f	66		 DB	 102			; 00000066H
  00250	00		 DB	 0
$LN9@OnOK:
  00251	66		 DB	 102			; 00000066H
  00252	69		 DB	 105			; 00000069H
  00253	6c		 DB	 108			; 0000006cH
  00254	65		 DB	 101			; 00000065H
  00255	44		 DB	 68			; 00000044H
  00256	6c		 DB	 108			; 0000006cH
  00257	67		 DB	 103			; 00000067H
  00258	00		 DB	 0
$LN8@OnOK:
  00259	72		 DB	 114			; 00000072H
  0025a	65		 DB	 101			; 00000065H
  0025b	6d		 DB	 109			; 0000006dH
  0025c	6f		 DB	 111			; 0000006fH
  0025d	76		 DB	 118			; 00000076H
  0025e	65		 DB	 101			; 00000065H
  0025f	64		 DB	 100			; 00000064H
  00260	4f		 DB	 79			; 0000004fH
  00261	77		 DB	 119			; 00000077H
  00262	6e		 DB	 110			; 0000006eH
  00263	65		 DB	 101			; 00000065H
  00264	72		 DB	 114			; 00000072H
  00265	73		 DB	 115			; 00000073H
  00266	00		 DB	 0
_TEXT	ENDS
text$x	SEGMENT
__unwindfunclet$?OnOK@TestCreation@@MAEXXZ$0:
  00000	8d 8d 48 fb ff
	ff		 lea	 ecx, DWORD PTR _fileDlg$[ebp]
  00006	e9 00 00 00 00	 jmp	 ??1CFileDialog@@UAE@XZ	; CFileDialog::~CFileDialog
__unwindfunclet$?OnOK@TestCreation@@MAEXXZ$1:
  0000b	8b f4		 mov	 esi, esp
  0000d	8d 8d d4 fa ff
	ff		 lea	 ecx, DWORD PTR $T2[ebp]
  00013	ff 15 00 00 00
	00		 call	 DWORD PTR __imp_??1?$CStringT@DV?$StrTraitMFC_DLL@DV?$ChTraitsCRT@D@ATL@@@@@ATL@@QAE@XZ
  00019	3b f4		 cmp	 esi, esp
  0001b	e9 00 00 00 00	 jmp	 __RTC_CheckEsp
__unwindfunclet$?OnOK@TestCreation@@MAEXXZ$2:
  00020	8d 8d 2c fb ff
	ff		 lea	 ecx, DWORD PTR _f$[ebp]
  00026	e9 00 00 00 00	 jmp	 ??1CFile@@UAE@XZ	; CFile::~CFile
__unwindfunclet$?OnOK@TestCreation@@MAEXXZ$3:
  0002b	8d 8d dc fa ff
	ff		 lea	 ecx, DWORD PTR _ar$[ebp]
  00031	e9 00 00 00 00	 jmp	 ??1CArchive@@QAE@XZ	; CArchive::~CArchive
  00036	cc		 int	 3
  00037	cc		 int	 3
  00038	cc		 int	 3
  00039	cc		 int	 3
  0003a	cc		 int	 3
__ehhandler$?OnOK@TestCreation@@MAEXXZ:
  0003b	90		 npad	 1
  0003c	90		 npad	 1
  0003d	8b 54 24 08	 mov	 edx, DWORD PTR [esp+8]
  00041	8d 42 0c	 lea	 eax, DWORD PTR [edx+12]
  00044	8b 8a cc fa ff
	ff		 mov	 ecx, DWORD PTR [edx-1332]
  0004a	33 c8		 xor	 ecx, eax
  0004c	e8 00 00 00 00	 call	 @__security_check_cookie@4
  00051	8b 4a fc	 mov	 ecx, DWORD PTR [edx-4]
  00054	33 c8		 xor	 ecx, eax
  00056	e8 00 00 00 00	 call	 @__security_check_cookie@4
  0005b	b8 00 00 00 00	 mov	 eax, OFFSET __ehfuncinfo$?OnOK@TestCreation@@MAEXXZ
  00060	e9 00 00 00 00	 jmp	 ___CxxFrameHandler3
text$x	ENDS
?OnOK@TestCreation@@MAEXXZ ENDP				; TestCreation::OnOK
; Function compile flags: /Odtp /RTCsu
; File C:\Users\15485\Desktop\工程之星点格棋\工程之星点格棋\TestCreation.cpp
_TEXT	SEGMENT
_this$ = -4						; size = 4
_pDX$ = 8						; size = 4
?DoDataExchange@TestCreation@@MAEXPAVCDataExchange@@@Z PROC ; TestCreation::DoDataExchange
; _this$ = ecx

; 43   : {

  00000	55		 push	 ebp
  00001	8b ec		 mov	 ebp, esp
  00003	51		 push	 ecx
  00004	c7 45 fc cc cc
	cc cc		 mov	 DWORD PTR [ebp-4], -858993460 ; ccccccccH
  0000b	89 4d fc	 mov	 DWORD PTR _this$[ebp], ecx

; 44   : 	CDialog::DoDataExchange(pDX);

  0000e	8b 45 08	 mov	 eax, DWORD PTR _pDX$[ebp]
  00011	50		 push	 eax
  00012	8b 4d fc	 mov	 ecx, DWORD PTR _this$[ebp]
  00015	e8 00 00 00 00	 call	 ?DoDataExchange@CWnd@@MAEXPAVCDataExchange@@@Z ; CWnd::DoDataExchange

; 45   : 	//{{AFX_DATA_MAP(TestCreation)
; 46   : 	DDX_Check(pDX, IDC_ObviousCapture, m_obviousCapture);

  0001a	8b 4d fc	 mov	 ecx, DWORD PTR _this$[ebp]
  0001d	81 c1 a8 00 00
	00		 add	 ecx, 168		; 000000a8H
  00023	51		 push	 ecx
  00024	68 f0 03 00 00	 push	 1008			; 000003f0H
  00029	8b 55 08	 mov	 edx, DWORD PTR _pDX$[ebp]
  0002c	52		 push	 edx
  0002d	e8 00 00 00 00	 call	 ?DDX_Check@@YGXPAVCDataExchange@@HAAH@Z ; DDX_Check

; 47   : 	DDX_Check(pDX, IDC_RandomMove, m_randomMove);

  00032	8b 45 fc	 mov	 eax, DWORD PTR _this$[ebp]
  00035	05 ac 00 00 00	 add	 eax, 172		; 000000acH
  0003a	50		 push	 eax
  0003b	68 ef 03 00 00	 push	 1007			; 000003efH
  00040	8b 4d 08	 mov	 ecx, DWORD PTR _pDX$[ebp]
  00043	51		 push	 ecx
  00044	e8 00 00 00 00	 call	 ?DDX_Check@@YGXPAVCDataExchange@@HAAH@Z ; DDX_Check

; 48   : 	DDX_Check(pDX, IDC_GiveLittle, m_giveLittle);

  00049	8b 55 fc	 mov	 edx, DWORD PTR _this$[ebp]
  0004c	81 c2 b0 00 00
	00		 add	 edx, 176		; 000000b0H
  00052	52		 push	 edx
  00053	68 f2 03 00 00	 push	 1010			; 000003f2H
  00058	8b 45 08	 mov	 eax, DWORD PTR _pDX$[ebp]
  0005b	50		 push	 eax
  0005c	e8 00 00 00 00	 call	 ?DDX_Check@@YGXPAVCDataExchange@@HAAH@Z ; DDX_Check

; 49   : 	DDX_Check(pDX, IDC_GiveNothing, m_giveNothing);

  00061	8b 4d fc	 mov	 ecx, DWORD PTR _this$[ebp]
  00064	81 c1 b4 00 00
	00		 add	 ecx, 180		; 000000b4H
  0006a	51		 push	 ecx
  0006b	68 f1 03 00 00	 push	 1009			; 000003f1H
  00070	8b 55 08	 mov	 edx, DWORD PTR _pDX$[ebp]
  00073	52		 push	 edx
  00074	e8 00 00 00 00	 call	 ?DDX_Check@@YGXPAVCDataExchange@@HAAH@Z ; DDX_Check

; 50   : 	DDX_Check(pDX, IDC_GrabAnything, m_grabAnything);

  00079	8b 45 fc	 mov	 eax, DWORD PTR _this$[ebp]
  0007c	05 b8 00 00 00	 add	 eax, 184		; 000000b8H
  00081	50		 push	 eax
  00082	68 f3 03 00 00	 push	 1011			; 000003f3H
  00087	8b 4d 08	 mov	 ecx, DWORD PTR _pDX$[ebp]
  0008a	51		 push	 ecx
  0008b	e8 00 00 00 00	 call	 ?DDX_Check@@YGXPAVCDataExchange@@HAAH@Z ; DDX_Check

; 51   : 	DDX_Check(pDX, IDC_SimpleWin, m_simpleWin);

  00090	8b 55 fc	 mov	 edx, DWORD PTR _this$[ebp]
  00093	81 c2 bc 00 00
	00		 add	 edx, 188		; 000000bcH
  00099	52		 push	 edx
  0009a	68 f4 03 00 00	 push	 1012			; 000003f4H
  0009f	8b 45 08	 mov	 eax, DWORD PTR _pDX$[ebp]
  000a2	50		 push	 eax
  000a3	e8 00 00 00 00	 call	 ?DDX_Check@@YGXPAVCDataExchange@@HAAH@Z ; DDX_Check

; 52   : 	DDX_Check(pDX, IDC_VerifyNimstringValue, m_verifyNimstringValue);

  000a8	8b 4d fc	 mov	 ecx, DWORD PTR _this$[ebp]
  000ab	81 c1 c0 00 00
	00		 add	 ecx, 192		; 000000c0H
  000b1	51		 push	 ecx
  000b2	68 f8 03 00 00	 push	 1016			; 000003f8H
  000b7	8b 55 08	 mov	 edx, DWORD PTR _pDX$[ebp]
  000ba	52		 push	 edx
  000bb	e8 00 00 00 00	 call	 ?DDX_Check@@YGXPAVCDataExchange@@HAAH@Z ; DDX_Check

; 53   : 	DDX_Text(pDX, IDC_NimstringValue, m_nimstringValue);

  000c0	8b 45 fc	 mov	 eax, DWORD PTR _this$[ebp]
  000c3	05 c4 00 00 00	 add	 eax, 196		; 000000c4H
  000c8	50		 push	 eax
  000c9	68 f6 03 00 00	 push	 1014			; 000003f6H
  000ce	8b 4d 08	 mov	 ecx, DWORD PTR _pDX$[ebp]
  000d1	51		 push	 ecx
  000d2	e8 00 00 00 00	 call	 ?DDX_Text@@YGXPAVCDataExchange@@HAAH@Z ; DDX_Text

; 54   : 	//}}AFX_DATA_MAP
; 55   : }

  000d7	83 c4 04	 add	 esp, 4
  000da	3b ec		 cmp	 ebp, esp
  000dc	e8 00 00 00 00	 call	 __RTC_CheckEsp
  000e1	8b e5		 mov	 esp, ebp
  000e3	5d		 pop	 ebp
  000e4	c2 04 00	 ret	 4
?DoDataExchange@TestCreation@@MAEXPAVCDataExchange@@@Z ENDP ; TestCreation::DoDataExchange
_TEXT	ENDS
; Function compile flags: /Odtp /RTCsu
; File C:\Users\15485\Desktop\工程之星点格棋\工程之星点格棋\TestCreation.cpp
_TEXT	SEGMENT
_this$ = -4						; size = 4
_pParent$ = 8						; size = 4
??0TestCreation@@QAE@PAVCWnd@@@Z PROC			; TestCreation::TestCreation
; _this$ = ecx

; 28   : {

  00000	55		 push	 ebp
  00001	8b ec		 mov	 ebp, esp
  00003	51		 push	 ecx
  00004	c7 45 fc cc cc
	cc cc		 mov	 DWORD PTR [ebp-4], -858993460 ; ccccccccH
  0000b	89 4d fc	 mov	 DWORD PTR _this$[ebp], ecx

; 27   : 	: CDialog(TestCreation::IDD, pParent)

  0000e	8b 45 08	 mov	 eax, DWORD PTR _pParent$[ebp]
  00011	50		 push	 eax
  00012	68 83 00 00 00	 push	 131			; 00000083H
  00017	8b 4d fc	 mov	 ecx, DWORD PTR _this$[ebp]
  0001a	e8 00 00 00 00	 call	 ??0CDialog@@QAE@IPAVCWnd@@@Z ; CDialog::CDialog

; 28   : {

  0001f	8b 4d fc	 mov	 ecx, DWORD PTR _this$[ebp]
  00022	c7 01 00 00 00
	00		 mov	 DWORD PTR [ecx], OFFSET ??_7TestCreation@@6B@

; 29   : 	//{{AFX_DATA_INIT(TestCreation)
; 30   : 	m_obviousCapture = FALSE;

  00028	8b 55 fc	 mov	 edx, DWORD PTR _this$[ebp]
  0002b	c7 82 a8 00 00
	00 00 00 00 00	 mov	 DWORD PTR [edx+168], 0

; 31   : 	m_randomMove = FALSE;

  00035	8b 45 fc	 mov	 eax, DWORD PTR _this$[ebp]
  00038	c7 80 ac 00 00
	00 00 00 00 00	 mov	 DWORD PTR [eax+172], 0

; 32   : 	m_giveLittle = FALSE;

  00042	8b 4d fc	 mov	 ecx, DWORD PTR _this$[ebp]
  00045	c7 81 b0 00 00
	00 00 00 00 00	 mov	 DWORD PTR [ecx+176], 0

; 33   : 	m_giveNothing = FALSE;

  0004f	8b 55 fc	 mov	 edx, DWORD PTR _this$[ebp]
  00052	c7 82 b4 00 00
	00 00 00 00 00	 mov	 DWORD PTR [edx+180], 0

; 34   : 	m_grabAnything = FALSE;

  0005c	8b 45 fc	 mov	 eax, DWORD PTR _this$[ebp]
  0005f	c7 80 b8 00 00
	00 00 00 00 00	 mov	 DWORD PTR [eax+184], 0

; 35   : 	m_simpleWin = FALSE;

  00069	8b 4d fc	 mov	 ecx, DWORD PTR _this$[ebp]
  0006c	c7 81 bc 00 00
	00 00 00 00 00	 mov	 DWORD PTR [ecx+188], 0

; 36   : 	m_verifyNimstringValue = FALSE;

  00076	8b 55 fc	 mov	 edx, DWORD PTR _this$[ebp]
  00079	c7 82 c0 00 00
	00 00 00 00 00	 mov	 DWORD PTR [edx+192], 0

; 37   : 	m_nimstringValue = 0;

  00083	8b 45 fc	 mov	 eax, DWORD PTR _this$[ebp]
  00086	c7 80 c4 00 00
	00 00 00 00 00	 mov	 DWORD PTR [eax+196], 0

; 38   : 	//}}AFX_DATA_INIT
; 39   : }

  00090	8b 45 fc	 mov	 eax, DWORD PTR _this$[ebp]
  00093	83 c4 04	 add	 esp, 4
  00096	3b ec		 cmp	 ebp, esp
  00098	e8 00 00 00 00	 call	 __RTC_CheckEsp
  0009d	8b e5		 mov	 esp, ebp
  0009f	5d		 pop	 ebp
  000a0	c2 04 00	 ret	 4
??0TestCreation@@QAE@PAVCWnd@@@Z ENDP			; TestCreation::TestCreation
_TEXT	ENDS
; Function compile flags: /Odtp /RTCsu
; File C:\Users\15485\Desktop\工程之星点格棋\工程之星点格棋\NewBoxesDoc.h
;	COMDAT ?NimstringValueToVerify@CNewBoxesDoc@@QAEXH@Z
_TEXT	SEGMENT
_this$ = -4						; size = 4
_v$ = 8							; size = 4
?NimstringValueToVerify@CNewBoxesDoc@@QAEXH@Z PROC	; CNewBoxesDoc::NimstringValueToVerify, COMDAT
; _this$ = ecx

; 131  :   void NimstringValueToVerify(int v){m_nimstringValueToVerify=v;};

  00000	55		 push	 ebp
  00001	8b ec		 mov	 ebp, esp
  00003	51		 push	 ecx
  00004	89 4d fc	 mov	 DWORD PTR _this$[ebp], ecx
  00007	8b 45 fc	 mov	 eax, DWORD PTR _this$[ebp]
  0000a	8b 4d 08	 mov	 ecx, DWORD PTR _v$[ebp]
  0000d	89 88 3c 01 00
	00		 mov	 DWORD PTR [eax+316], ecx
  00013	8b e5		 mov	 esp, ebp
  00015	5d		 pop	 ebp
  00016	c2 04 00	 ret	 4
?NimstringValueToVerify@CNewBoxesDoc@@QAEXH@Z ENDP	; CNewBoxesDoc::NimstringValueToVerify
_TEXT	ENDS
; Function compile flags: /Odtp /RTCsu
; File C:\Users\15485\Desktop\工程之星点格棋\工程之星点格棋\NewBoxesDoc.h
;	COMDAT ?NimstringValueToVerify@CNewBoxesDoc@@QAEHXZ
_TEXT	SEGMENT
_this$ = -4						; size = 4
?NimstringValueToVerify@CNewBoxesDoc@@QAEHXZ PROC	; CNewBoxesDoc::NimstringValueToVerify, COMDAT
; _this$ = ecx

; 130  :   int  NimstringValueToVerify(void){return m_nimstringValueToVerify;};

  00000	55		 push	 ebp
  00001	8b ec		 mov	 ebp, esp
  00003	51		 push	 ecx
  00004	89 4d fc	 mov	 DWORD PTR _this$[ebp], ecx
  00007	8b 45 fc	 mov	 eax, DWORD PTR _this$[ebp]
  0000a	8b 80 3c 01 00
	00		 mov	 eax, DWORD PTR [eax+316]
  00010	8b e5		 mov	 esp, ebp
  00012	5d		 pop	 ebp
  00013	c3		 ret	 0
?NimstringValueToVerify@CNewBoxesDoc@@QAEHXZ ENDP	; CNewBoxesDoc::NimstringValueToVerify
_TEXT	ENDS
; Function compile flags: /Odtp /RTCsu
; File C:\Users\15485\Desktop\工程之星点格棋\工程之星点格棋\NewBoxesDoc.h
;	COMDAT ?GameSize@CNewBoxesDoc@@QAE?AUtagPOINT@@XZ
_TEXT	SEGMENT
_p$ = -16						; size = 8
_this$ = -4						; size = 4
___$ReturnUdt$ = 8					; size = 4
?GameSize@CNewBoxesDoc@@QAE?AUtagPOINT@@XZ PROC		; CNewBoxesDoc::GameSize, COMDAT
; _this$ = ecx

; 75   :   POINT GameSize(void){POINT p={m_pGame->Width(),m_pGame->Height()};return p;};

  00000	55		 push	 ebp
  00001	8b ec		 mov	 ebp, esp
  00003	83 ec 14	 sub	 esp, 20			; 00000014H
  00006	b8 cc cc cc cc	 mov	 eax, -858993460		; ccccccccH
  0000b	89 45 ec	 mov	 DWORD PTR [ebp-20], eax
  0000e	89 45 f0	 mov	 DWORD PTR [ebp-16], eax
  00011	89 45 f4	 mov	 DWORD PTR [ebp-12], eax
  00014	89 45 f8	 mov	 DWORD PTR [ebp-8], eax
  00017	89 45 fc	 mov	 DWORD PTR [ebp-4], eax
  0001a	89 4d fc	 mov	 DWORD PTR _this$[ebp], ecx
  0001d	8b 45 fc	 mov	 eax, DWORD PTR _this$[ebp]
  00020	8b 88 28 36 00
	00		 mov	 ecx, DWORD PTR [eax+13864]
  00026	e8 00 00 00 00	 call	 ?Width@DOTS_AND_BOXES@@QBEHXZ ; DOTS_AND_BOXES::Width
  0002b	89 45 f0	 mov	 DWORD PTR _p$[ebp], eax
  0002e	8b 4d fc	 mov	 ecx, DWORD PTR _this$[ebp]
  00031	8b 89 28 36 00
	00		 mov	 ecx, DWORD PTR [ecx+13864]
  00037	e8 00 00 00 00	 call	 ?Height@DOTS_AND_BOXES@@QBEHXZ ; DOTS_AND_BOXES::Height
  0003c	89 45 f4	 mov	 DWORD PTR _p$[ebp+4], eax
  0003f	8b 55 08	 mov	 edx, DWORD PTR ___$ReturnUdt$[ebp]
  00042	8b 45 f0	 mov	 eax, DWORD PTR _p$[ebp]
  00045	8b 4d f4	 mov	 ecx, DWORD PTR _p$[ebp+4]
  00048	89 02		 mov	 DWORD PTR [edx], eax
  0004a	89 4a 04	 mov	 DWORD PTR [edx+4], ecx
  0004d	8b 45 08	 mov	 eax, DWORD PTR ___$ReturnUdt$[ebp]
  00050	52		 push	 edx
  00051	8b cd		 mov	 ecx, ebp
  00053	50		 push	 eax
  00054	8d 15 00 00 00
	00		 lea	 edx, DWORD PTR $LN5@GameSize
  0005a	e8 00 00 00 00	 call	 @_RTC_CheckStackVars@8
  0005f	58		 pop	 eax
  00060	5a		 pop	 edx
  00061	83 c4 14	 add	 esp, 20			; 00000014H
  00064	3b ec		 cmp	 ebp, esp
  00066	e8 00 00 00 00	 call	 __RTC_CheckEsp
  0006b	8b e5		 mov	 esp, ebp
  0006d	5d		 pop	 ebp
  0006e	c2 04 00	 ret	 4
  00071	0f 1f 00	 npad	 3
$LN5@GameSize:
  00074	01 00 00 00	 DD	 1
  00078	00 00 00 00	 DD	 $LN4@GameSize
$LN4@GameSize:
  0007c	f0 ff ff ff	 DD	 -16			; fffffff0H
  00080	08 00 00 00	 DD	 8
  00084	00 00 00 00	 DD	 $LN3@GameSize
$LN3@GameSize:
  00088	70		 DB	 112			; 00000070H
  00089	00		 DB	 0
?GameSize@CNewBoxesDoc@@QAE?AUtagPOINT@@XZ ENDP		; CNewBoxesDoc::GameSize
_TEXT	ENDS
; Function compile flags: /Odtp /RTCsu
; File C:\Users\15485\Desktop\工程之星点格棋\DotBoxLib\DotsAndBoxes.h
;	COMDAT ?Height@DOTS_AND_BOXES@@QBEHXZ
_TEXT	SEGMENT
_this$ = -4						; size = 4
?Height@DOTS_AND_BOXES@@QBEHXZ PROC			; DOTS_AND_BOXES::Height, COMDAT
; _this$ = ecx

; 93   :   INLINE int Height(void) const {return m_height;};

  00000	55		 push	 ebp
  00001	8b ec		 mov	 ebp, esp
  00003	51		 push	 ecx
  00004	89 4d fc	 mov	 DWORD PTR _this$[ebp], ecx
  00007	8b 45 fc	 mov	 eax, DWORD PTR _this$[ebp]
  0000a	8b 40 14	 mov	 eax, DWORD PTR [eax+20]
  0000d	8b e5		 mov	 esp, ebp
  0000f	5d		 pop	 ebp
  00010	c3		 ret	 0
?Height@DOTS_AND_BOXES@@QBEHXZ ENDP			; DOTS_AND_BOXES::Height
_TEXT	ENDS
; Function compile flags: /Odtp /RTCsu
; File C:\Users\15485\Desktop\工程之星点格棋\DotBoxLib\DotsAndBoxes.h
;	COMDAT ?Width@DOTS_AND_BOXES@@QBEHXZ
_TEXT	SEGMENT
_this$ = -4						; size = 4
?Width@DOTS_AND_BOXES@@QBEHXZ PROC			; DOTS_AND_BOXES::Width, COMDAT
; _this$ = ecx

; 92   :   INLINE int Width(void) const {return m_width;};

  00000	55		 push	 ebp
  00001	8b ec		 mov	 ebp, esp
  00003	51		 push	 ecx
  00004	89 4d fc	 mov	 DWORD PTR _this$[ebp], ecx
  00007	8b 45 fc	 mov	 eax, DWORD PTR _this$[ebp]
  0000a	8b 40 10	 mov	 eax, DWORD PTR [eax+16]
  0000d	8b e5		 mov	 esp, ebp
  0000f	5d		 pop	 ebp
  00010	c3		 ret	 0
?Width@DOTS_AND_BOXES@@QBEHXZ ENDP			; DOTS_AND_BOXES::Width
_TEXT	ENDS
; Function compile flags: /Odtp /RTCsu
; File C:\Users\15485\Desktop\工程之星点格棋\工程之星点格棋\TestCreation.cpp
;	COMDAT ?__empty_global_delete@@YAXPAXI@Z
_TEXT	SEGMENT
___formal$ = 8						; size = 4
___formal$ = 12						; size = 4
?__empty_global_delete@@YAXPAXI@Z PROC			; __empty_global_delete, COMDAT

  00000	55		 push	 ebp
  00001	8b ec		 mov	 ebp, esp
  00003	5d		 pop	 ebp
  00004	c3		 ret	 0
?__empty_global_delete@@YAXPAXI@Z ENDP			; __empty_global_delete
_TEXT	ENDS
; Function compile flags: /Odtp /RTCsu
; File C:\Users\15485\Desktop\工程之星点格棋\工程之星点格棋\TestCreation.cpp
;	COMDAT ?__empty_global_delete@@YAXPAX@Z
_TEXT	SEGMENT
___formal$ = 8						; size = 4
?__empty_global_delete@@YAXPAX@Z PROC			; __empty_global_delete, COMDAT

  00000	55		 push	 ebp
  00001	8b ec		 mov	 ebp, esp
  00003	5d		 pop	 ebp
  00004	c3		 ret	 0
?__empty_global_delete@@YAXPAX@Z ENDP			; __empty_global_delete
_TEXT	ENDS
END
